Archive member included to satisfy reference by file (symbol)

C:\ZYBO\Work-2018.2\APP6-GE\S4e-APP6-Vivado_Etudiant\APP6\APP6.sdk\standalone_bsp_0\microblaze_0\lib\libgloss.a(print.o)
                              ./cyclone_tcp/std_services/echo.o (print)
C:\ZYBO\Work-2018.2\APP6-GE\S4e-APP6-Vivado_Etudiant\APP6\APP6.sdk\standalone_bsp_0\microblaze_0\lib\libgloss.a(_exception_handler.o)
                              d:/xilinx/sdk/2018.2/gnu/microblaze/nt/bin/../lib/gcc/microblaze-xilinx-elf/7.2.0/../../../../microblaze-xilinx-elf/lib/m/le/crt0.o (_exception_handler)
C:\ZYBO\Work-2018.2\APP6-GE\S4e-APP6-Vivado_Etudiant\APP6\APP6.sdk\standalone_bsp_0\microblaze_0\lib\libgloss.a(_program_clean.o)
                              d:/xilinx/sdk/2018.2/gnu/microblaze/nt/bin/../lib/gcc/microblaze-xilinx-elf/7.2.0/../../../../microblaze-xilinx-elf/lib/m/le/crtinit.o (_program_clean)
C:\ZYBO\Work-2018.2\APP6-GE\S4e-APP6-Vivado_Etudiant\APP6\APP6.sdk\standalone_bsp_0\microblaze_0\lib\libgloss.a(_program_init.o)
                              d:/xilinx/sdk/2018.2/gnu/microblaze/nt/bin/../lib/gcc/microblaze-xilinx-elf/7.2.0/../../../../microblaze-xilinx-elf/lib/m/le/crtinit.o (_program_init)
C:\ZYBO\Work-2018.2\APP6-GE\S4e-APP6-Vivado_Etudiant\APP6\APP6.sdk\standalone_bsp_0\microblaze_0\lib\libxil.a(xgpio.o)
                              ./cyclone_tcp/main.o (XGpio_SetDataDirection)
C:\ZYBO\Work-2018.2\APP6-GE\S4e-APP6-Vivado_Etudiant\APP6\APP6.sdk\standalone_bsp_0\microblaze_0\lib\libxil.a(xgpio_sinit.o)
                              ./cyclone_tcp/main.o (XGpio_Initialize)
C:\ZYBO\Work-2018.2\APP6-GE\S4e-APP6-Vivado_Etudiant\APP6\APP6.sdk\standalone_bsp_0\microblaze_0\lib\libxil.a(xintc.o)
                              ./cyclone_tcp/main.o (XIntc_Initialize)
C:\ZYBO\Work-2018.2\APP6-GE\S4e-APP6-Vivado_Etudiant\APP6\APP6.sdk\standalone_bsp_0\microblaze_0\lib\libxil.a(xintc_g.o)
                              C:\ZYBO\Work-2018.2\APP6-GE\S4e-APP6-Vivado_Etudiant\APP6\APP6.sdk\standalone_bsp_0\microblaze_0\lib\libxil.a(xintc.o) (XIntc_ConfigTable)
C:\ZYBO\Work-2018.2\APP6-GE\S4e-APP6-Vivado_Etudiant\APP6\APP6.sdk\standalone_bsp_0\microblaze_0\lib\libxil.a(xintc_intr.o)
                              ./cyclone_tcp/main.o (XIntc_InterruptHandler)
C:\ZYBO\Work-2018.2\APP6-GE\S4e-APP6-Vivado_Etudiant\APP6\APP6.sdk\standalone_bsp_0\microblaze_0\lib\libxil.a(xintc_l.o)
                              C:\ZYBO\Work-2018.2\APP6-GE\S4e-APP6-Vivado_Etudiant\APP6\APP6.sdk\standalone_bsp_0\microblaze_0\lib\libxil.a(xintc_intr.o) (XIntc_DeviceInterruptHandler)
C:\ZYBO\Work-2018.2\APP6-GE\S4e-APP6-Vivado_Etudiant\APP6\APP6.sdk\standalone_bsp_0\microblaze_0\lib\libxil.a(xspi.o)
                              ./cyclone_tcp/spi_driver.o (XSpi_CfgInitialize)
C:\ZYBO\Work-2018.2\APP6-GE\S4e-APP6-Vivado_Etudiant\APP6\APP6.sdk\standalone_bsp_0\microblaze_0\lib\libxil.a(xspi_sinit.o)
                              ./cyclone_tcp/spi_driver.o (XSpi_LookupConfig)
C:\ZYBO\Work-2018.2\APP6-GE\S4e-APP6-Vivado_Etudiant\APP6\APP6.sdk\standalone_bsp_0\microblaze_0\lib\libxil.a(hw_exception_handler.o)
                              d:/xilinx/sdk/2018.2/gnu/microblaze/nt/bin/../lib/gcc/microblaze-xilinx-elf/7.2.0/../../../../microblaze-xilinx-elf/lib/m/le/crt0.o (_hw_exception_handler)
C:\ZYBO\Work-2018.2\APP6-GE\S4e-APP6-Vivado_Etudiant\APP6\APP6.sdk\standalone_bsp_0\microblaze_0\lib\libxil.a(microblaze_interrupt_handler.o)
                              d:/xilinx/sdk/2018.2/gnu/microblaze/nt/bin/../lib/gcc/microblaze-xilinx-elf/7.2.0/../../../../microblaze-xilinx-elf/lib/m/le/crt0.o (_interrupt_handler)
C:\ZYBO\Work-2018.2\APP6-GE\S4e-APP6-Vivado_Etudiant\APP6\APP6.sdk\standalone_bsp_0\microblaze_0\lib\libxil.a(microblaze_interrupts_g.o)
                              C:\ZYBO\Work-2018.2\APP6-GE\S4e-APP6-Vivado_Etudiant\APP6\APP6.sdk\standalone_bsp_0\microblaze_0\lib\libxil.a(microblaze_interrupt_handler.o) (MB_InterruptVectorTable)
C:\ZYBO\Work-2018.2\APP6-GE\S4e-APP6-Vivado_Etudiant\APP6\APP6.sdk\standalone_bsp_0\microblaze_0\lib\libxil.a(outbyte.o)
                              C:\ZYBO\Work-2018.2\APP6-GE\S4e-APP6-Vivado_Etudiant\APP6\APP6.sdk\standalone_bsp_0\microblaze_0\lib\libgloss.a(print.o) (outbyte)
C:\ZYBO\Work-2018.2\APP6-GE\S4e-APP6-Vivado_Etudiant\APP6\APP6.sdk\standalone_bsp_0\microblaze_0\lib\libxil.a(xil_assert.o)
                              C:\ZYBO\Work-2018.2\APP6-GE\S4e-APP6-Vivado_Etudiant\APP6\APP6.sdk\standalone_bsp_0\microblaze_0\lib\libxil.a(xgpio.o) (Xil_Assert)
C:\ZYBO\Work-2018.2\APP6-GE\S4e-APP6-Vivado_Etudiant\APP6\APP6.sdk\standalone_bsp_0\microblaze_0\lib\libxil.a(xil_exception.o)
                              ./cyclone_tcp/main.o (Xil_ExceptionInit)
C:\ZYBO\Work-2018.2\APP6-GE\S4e-APP6-Vivado_Etudiant\APP6\APP6.sdk\standalone_bsp_0\microblaze_0\lib\libxil.a(xil_printf.o)
                              ./cyclone_tcp/main.o (xil_printf)
C:\ZYBO\Work-2018.2\APP6-GE\S4e-APP6-Vivado_Etudiant\APP6\APP6.sdk\standalone_bsp_0\microblaze_0\lib\libxil.a(xuartlite.o)
                              ./cyclone_tcp/main.o (XUartLite_Send)
C:\ZYBO\Work-2018.2\APP6-GE\S4e-APP6-Vivado_Etudiant\APP6\APP6.sdk\standalone_bsp_0\microblaze_0\lib\libxil.a(xuartlite_l.o)
                              C:\ZYBO\Work-2018.2\APP6-GE\S4e-APP6-Vivado_Etudiant\APP6\APP6.sdk\standalone_bsp_0\microblaze_0\lib\libxil.a(outbyte.o) (XUartLite_SendByte)
C:\ZYBO\Work-2018.2\APP6-GE\S4e-APP6-Vivado_Etudiant\APP6\APP6.sdk\standalone_bsp_0\microblaze_0\lib\libxil.a(xuartlite_selftest.o)
                              ./cyclone_tcp/main.o (XUartLite_SelfTest)
C:\ZYBO\Work-2018.2\APP6-GE\S4e-APP6-Vivado_Etudiant\APP6\APP6.sdk\standalone_bsp_0\microblaze_0\lib\libxil.a(xuartlite_sinit.o)
                              ./cyclone_tcp/main.o (XUartLite_Initialize)
C:\ZYBO\Work-2018.2\APP6-GE\S4e-APP6-Vivado_Etudiant\APP6\APP6.sdk\standalone_bsp_0\microblaze_0\lib\libxil.a(xuartlite_stats.o)
                              C:\ZYBO\Work-2018.2\APP6-GE\S4e-APP6-Vivado_Etudiant\APP6\APP6.sdk\standalone_bsp_0\microblaze_0\lib\libxil.a(xuartlite.o) (XUartLite_ClearStats)
C:\ZYBO\Work-2018.2\APP6-GE\S4e-APP6-Vivado_Etudiant\APP6\APP6.sdk\standalone_bsp_0\microblaze_0\lib\libxil.a(xgpio_g.o)
                              C:\ZYBO\Work-2018.2\APP6-GE\S4e-APP6-Vivado_Etudiant\APP6\APP6.sdk\standalone_bsp_0\microblaze_0\lib\libxil.a(xgpio_sinit.o) (XGpio_ConfigTable)
C:\ZYBO\Work-2018.2\APP6-GE\S4e-APP6-Vivado_Etudiant\APP6\APP6.sdk\standalone_bsp_0\microblaze_0\lib\libxil.a(xspi_g.o)
                              C:\ZYBO\Work-2018.2\APP6-GE\S4e-APP6-Vivado_Etudiant\APP6\APP6.sdk\standalone_bsp_0\microblaze_0\lib\libxil.a(xspi_sinit.o) (XSpi_ConfigTable)
C:\ZYBO\Work-2018.2\APP6-GE\S4e-APP6-Vivado_Etudiant\APP6\APP6.sdk\standalone_bsp_0\microblaze_0\lib\libxil.a(microblaze_disable_exceptions.o)
                              C:\ZYBO\Work-2018.2\APP6-GE\S4e-APP6-Vivado_Etudiant\APP6\APP6.sdk\standalone_bsp_0\microblaze_0\lib\libxil.a(xil_exception.o) (microblaze_disable_exceptions)
C:\ZYBO\Work-2018.2\APP6-GE\S4e-APP6-Vivado_Etudiant\APP6\APP6.sdk\standalone_bsp_0\microblaze_0\lib\libxil.a(microblaze_disable_interrupts.o)
                              C:\ZYBO\Work-2018.2\APP6-GE\S4e-APP6-Vivado_Etudiant\APP6\APP6.sdk\standalone_bsp_0\microblaze_0\lib\libxil.a(xil_exception.o) (microblaze_disable_interrupts)
C:\ZYBO\Work-2018.2\APP6-GE\S4e-APP6-Vivado_Etudiant\APP6\APP6.sdk\standalone_bsp_0\microblaze_0\lib\libxil.a(microblaze_enable_exceptions.o)
                              C:\ZYBO\Work-2018.2\APP6-GE\S4e-APP6-Vivado_Etudiant\APP6\APP6.sdk\standalone_bsp_0\microblaze_0\lib\libxil.a(xil_exception.o) (microblaze_enable_exceptions)
C:\ZYBO\Work-2018.2\APP6-GE\S4e-APP6-Vivado_Etudiant\APP6\APP6.sdk\standalone_bsp_0\microblaze_0\lib\libxil.a(microblaze_enable_interrupts.o)
                              C:\ZYBO\Work-2018.2\APP6-GE\S4e-APP6-Vivado_Etudiant\APP6\APP6.sdk\standalone_bsp_0\microblaze_0\lib\libxil.a(xil_exception.o) (microblaze_enable_interrupts)
C:\ZYBO\Work-2018.2\APP6-GE\S4e-APP6-Vivado_Etudiant\APP6\APP6.sdk\standalone_bsp_0\microblaze_0\lib\libxil.a(xuartlite_g.o)
                              C:\ZYBO\Work-2018.2\APP6-GE\S4e-APP6-Vivado_Etudiant\APP6\APP6.sdk\standalone_bsp_0\microblaze_0\lib\libxil.a(xuartlite_sinit.o) (XUartLite_ConfigTable)
C:\ZYBO\Work-2018.2\APP6-GE\S4e-APP6-Vivado_Etudiant\APP6\APP6.sdk\standalone_bsp_0\microblaze_0\lib\libc.a(lib_a-ctype_.o)
                              C:\ZYBO\Work-2018.2\APP6-GE\S4e-APP6-Vivado_Etudiant\APP6\APP6.sdk\standalone_bsp_0\microblaze_0\lib\libxil.a(xil_printf.o) (__ctype_ptr__)
C:\ZYBO\Work-2018.2\APP6-GE\S4e-APP6-Vivado_Etudiant\APP6\APP6.sdk\standalone_bsp_0\microblaze_0\lib\libc.a(lib_a-exit.o)
                              d:/xilinx/sdk/2018.2/gnu/microblaze/nt/bin/../lib/gcc/microblaze-xilinx-elf/7.2.0/../../../../microblaze-xilinx-elf/lib/m/le/crt0.o (exit)
C:\ZYBO\Work-2018.2\APP6-GE\S4e-APP6-Vivado_Etudiant\APP6\APP6.sdk\standalone_bsp_0\microblaze_0\lib\libc.a(lib_a-impure.o)
                              C:\ZYBO\Work-2018.2\APP6-GE\S4e-APP6-Vivado_Etudiant\APP6\APP6.sdk\standalone_bsp_0\microblaze_0\lib\libc.a(lib_a-exit.o) (_global_impure_ptr)
C:\ZYBO\Work-2018.2\APP6-GE\S4e-APP6-Vivado_Etudiant\APP6\APP6.sdk\standalone_bsp_0\microblaze_0\lib\libc.a(lib_a-isupper.o)
                              ./cyclone_tcp/core/ethernet.o (isupper)
C:\ZYBO\Work-2018.2\APP6-GE\S4e-APP6-Vivado_Etudiant\APP6\APP6.sdk\standalone_bsp_0\microblaze_0\lib\libc.a(lib_a-isxdigit.o)
                              ./cyclone_tcp/core/ethernet.o (isxdigit)
C:\ZYBO\Work-2018.2\APP6-GE\S4e-APP6-Vivado_Etudiant\APP6\APP6.sdk\standalone_bsp_0\microblaze_0\lib\libc.a(lib_a-malloc.o)
                              ./common/os_port_none.o (malloc)
C:\ZYBO\Work-2018.2\APP6-GE\S4e-APP6-Vivado_Etudiant\APP6\APP6.sdk\standalone_bsp_0\microblaze_0\lib\libc.a(lib_a-mallocr.o)
                              C:\ZYBO\Work-2018.2\APP6-GE\S4e-APP6-Vivado_Etudiant\APP6\APP6.sdk\standalone_bsp_0\microblaze_0\lib\libc.a(lib_a-malloc.o) (_malloc_r)
C:\ZYBO\Work-2018.2\APP6-GE\S4e-APP6-Vivado_Etudiant\APP6\APP6.sdk\standalone_bsp_0\microblaze_0\lib\libc.a(lib_a-memcmp.o)
                              ./cyclone_tcp/ipv4/arp.o (memcmp)
C:\ZYBO\Work-2018.2\APP6-GE\S4e-APP6-Vivado_Etudiant\APP6\APP6.sdk\standalone_bsp_0\microblaze_0\lib\libc.a(lib_a-memcpy.o)
                              ./cyclone_tcp/core/net_mem.o (memcpy)
C:\ZYBO\Work-2018.2\APP6-GE\S4e-APP6-Vivado_Etudiant\APP6\APP6.sdk\standalone_bsp_0\microblaze_0\lib\libc.a(lib_a-memset.o)
                              ./cyclone_tcp/ipv4/arp.o (memset)
C:\ZYBO\Work-2018.2\APP6-GE\S4e-APP6-Vivado_Etudiant\APP6\APP6.sdk\standalone_bsp_0\microblaze_0\lib\libc.a(lib_a-mlock.o)
                              C:\ZYBO\Work-2018.2\APP6-GE\S4e-APP6-Vivado_Etudiant\APP6\APP6.sdk\standalone_bsp_0\microblaze_0\lib\libc.a(lib_a-mallocr.o) (__malloc_lock)
C:\ZYBO\Work-2018.2\APP6-GE\S4e-APP6-Vivado_Etudiant\APP6\APP6.sdk\standalone_bsp_0\microblaze_0\lib\libc.a(lib_a-sbrkr.o)
                              C:\ZYBO\Work-2018.2\APP6-GE\S4e-APP6-Vivado_Etudiant\APP6\APP6.sdk\standalone_bsp_0\microblaze_0\lib\libc.a(lib_a-mallocr.o) (_sbrk_r)
C:\ZYBO\Work-2018.2\APP6-GE\S4e-APP6-Vivado_Etudiant\APP6\APP6.sdk\standalone_bsp_0\microblaze_0\lib\libc.a(lib_a-sprintf.o)
                              ./cyclone_tcp/ipv4/ipv4.o (sprintf)
C:\ZYBO\Work-2018.2\APP6-GE\S4e-APP6-Vivado_Etudiant\APP6\APP6.sdk\standalone_bsp_0\microblaze_0\lib\libc.a(lib_a-strchr.o)
                              ./cyclone_tcp/core/ip.o (strchr)
C:\ZYBO\Work-2018.2\APP6-GE\S4e-APP6-Vivado_Etudiant\APP6\APP6.sdk\standalone_bsp_0\microblaze_0\lib\libc.a(lib_a-strlen.o)
                              C:\ZYBO\Work-2018.2\APP6-GE\S4e-APP6-Vivado_Etudiant\APP6\APP6.sdk\standalone_bsp_0\microblaze_0\lib\libxil.a(xil_printf.o) (strlen)
C:\ZYBO\Work-2018.2\APP6-GE\S4e-APP6-Vivado_Etudiant\APP6\APP6.sdk\standalone_bsp_0\microblaze_0\lib\libc.a(lib_a-strncpy.o)
                              ./cyclone_tcp/core/net.o (strncpy)
C:\ZYBO\Work-2018.2\APP6-GE\S4e-APP6-Vivado_Etudiant\APP6\APP6.sdk\standalone_bsp_0\microblaze_0\lib\libc.a(lib_a-svfprintf.o)
                              C:\ZYBO\Work-2018.2\APP6-GE\S4e-APP6-Vivado_Etudiant\APP6\APP6.sdk\standalone_bsp_0\microblaze_0\lib\libc.a(lib_a-sprintf.o) (_svfprintf_r)
C:\ZYBO\Work-2018.2\APP6-GE\S4e-APP6-Vivado_Etudiant\APP6\APP6.sdk\standalone_bsp_0\microblaze_0\lib\libc.a(lib_a-__call_atexit.o)
                              C:\ZYBO\Work-2018.2\APP6-GE\S4e-APP6-Vivado_Etudiant\APP6\APP6.sdk\standalone_bsp_0\microblaze_0\lib\libc.a(lib_a-exit.o) (__call_exitprocs)
C:\ZYBO\Work-2018.2\APP6-GE\S4e-APP6-Vivado_Etudiant\APP6\APP6.sdk\standalone_bsp_0\microblaze_0\lib\libc.a(lib_a-dtoa.o)
                              C:\ZYBO\Work-2018.2\APP6-GE\S4e-APP6-Vivado_Etudiant\APP6\APP6.sdk\standalone_bsp_0\microblaze_0\lib\libc.a(lib_a-svfprintf.o) (_dtoa_r)
C:\ZYBO\Work-2018.2\APP6-GE\S4e-APP6-Vivado_Etudiant\APP6\APP6.sdk\standalone_bsp_0\microblaze_0\lib\libc.a(lib_a-freer.o)
                              C:\ZYBO\Work-2018.2\APP6-GE\S4e-APP6-Vivado_Etudiant\APP6\APP6.sdk\standalone_bsp_0\microblaze_0\lib\libc.a(lib_a-malloc.o) (_free_r)
C:\ZYBO\Work-2018.2\APP6-GE\S4e-APP6-Vivado_Etudiant\APP6\APP6.sdk\standalone_bsp_0\microblaze_0\lib\libc.a(lib_a-locale.o)
                              C:\ZYBO\Work-2018.2\APP6-GE\S4e-APP6-Vivado_Etudiant\APP6\APP6.sdk\standalone_bsp_0\microblaze_0\lib\libc.a(lib_a-svfprintf.o) (_localeconv_r)
C:\ZYBO\Work-2018.2\APP6-GE\S4e-APP6-Vivado_Etudiant\APP6\APP6.sdk\standalone_bsp_0\microblaze_0\lib\libc.a(lib_a-memchr.o)
                              C:\ZYBO\Work-2018.2\APP6-GE\S4e-APP6-Vivado_Etudiant\APP6\APP6.sdk\standalone_bsp_0\microblaze_0\lib\libc.a(lib_a-svfprintf.o) (memchr)
C:\ZYBO\Work-2018.2\APP6-GE\S4e-APP6-Vivado_Etudiant\APP6\APP6.sdk\standalone_bsp_0\microblaze_0\lib\libc.a(lib_a-mprec.o)
                              C:\ZYBO\Work-2018.2\APP6-GE\S4e-APP6-Vivado_Etudiant\APP6\APP6.sdk\standalone_bsp_0\microblaze_0\lib\libc.a(lib_a-dtoa.o) (_Balloc)
C:\ZYBO\Work-2018.2\APP6-GE\S4e-APP6-Vivado_Etudiant\APP6\APP6.sdk\standalone_bsp_0\microblaze_0\lib\libc.a(lib_a-reent.o)
                              C:\ZYBO\Work-2018.2\APP6-GE\S4e-APP6-Vivado_Etudiant\APP6\APP6.sdk\standalone_bsp_0\microblaze_0\lib\libc.a(lib_a-sbrkr.o) (errno)
C:\ZYBO\Work-2018.2\APP6-GE\S4e-APP6-Vivado_Etudiant\APP6\APP6.sdk\standalone_bsp_0\microblaze_0\lib\libc.a(lib_a-s_frexp.o)
                              C:\ZYBO\Work-2018.2\APP6-GE\S4e-APP6-Vivado_Etudiant\APP6\APP6.sdk\standalone_bsp_0\microblaze_0\lib\libc.a(lib_a-svfprintf.o) (frexp)
C:\ZYBO\Work-2018.2\APP6-GE\S4e-APP6-Vivado_Etudiant\APP6\APP6.sdk\standalone_bsp_0\microblaze_0\lib\libc.a(lib_a-strcmp.o)
                              C:\ZYBO\Work-2018.2\APP6-GE\S4e-APP6-Vivado_Etudiant\APP6\APP6.sdk\standalone_bsp_0\microblaze_0\lib\libc.a(lib_a-locale.o) (strcmp)
C:\ZYBO\Work-2018.2\APP6-GE\S4e-APP6-Vivado_Etudiant\APP6\APP6.sdk\standalone_bsp_0\microblaze_0\lib\libc.a(lib_a-svfiprintf.o)
                              C:\ZYBO\Work-2018.2\APP6-GE\S4e-APP6-Vivado_Etudiant\APP6\APP6.sdk\standalone_bsp_0\microblaze_0\lib\libc.a(lib_a-svfprintf.o) (__ssprint_r)
C:\ZYBO\Work-2018.2\APP6-GE\S4e-APP6-Vivado_Etudiant\APP6\APP6.sdk\standalone_bsp_0\microblaze_0\lib\libc.a(lib_a-callocr.o)
                              C:\ZYBO\Work-2018.2\APP6-GE\S4e-APP6-Vivado_Etudiant\APP6\APP6.sdk\standalone_bsp_0\microblaze_0\lib\libc.a(lib_a-mprec.o) (_calloc_r)
C:\ZYBO\Work-2018.2\APP6-GE\S4e-APP6-Vivado_Etudiant\APP6\APP6.sdk\standalone_bsp_0\microblaze_0\lib\libc.a(lib_a-memmove.o)
                              C:\ZYBO\Work-2018.2\APP6-GE\S4e-APP6-Vivado_Etudiant\APP6\APP6.sdk\standalone_bsp_0\microblaze_0\lib\libc.a(lib_a-svfiprintf.o) (memmove)
C:\ZYBO\Work-2018.2\APP6-GE\S4e-APP6-Vivado_Etudiant\APP6\APP6.sdk\standalone_bsp_0\microblaze_0\lib\libc.a(lib_a-reallocr.o)
                              C:\ZYBO\Work-2018.2\APP6-GE\S4e-APP6-Vivado_Etudiant\APP6\APP6.sdk\standalone_bsp_0\microblaze_0\lib\libc.a(lib_a-svfiprintf.o) (_realloc_r)
C:\ZYBO\Work-2018.2\APP6-GE\S4e-APP6-Vivado_Etudiant\APP6\APP6.sdk\standalone_bsp_0\microblaze_0\lib\libgcc.a(_udivdi3.o)
                              C:\ZYBO\Work-2018.2\APP6-GE\S4e-APP6-Vivado_Etudiant\APP6\APP6.sdk\standalone_bsp_0\microblaze_0\lib\libc.a(lib_a-svfprintf.o) (__udivdi3)
C:\ZYBO\Work-2018.2\APP6-GE\S4e-APP6-Vivado_Etudiant\APP6\APP6.sdk\standalone_bsp_0\microblaze_0\lib\libgcc.a(_umoddi3.o)
                              C:\ZYBO\Work-2018.2\APP6-GE\S4e-APP6-Vivado_Etudiant\APP6\APP6.sdk\standalone_bsp_0\microblaze_0\lib\libc.a(lib_a-svfprintf.o) (__umoddi3)
C:\ZYBO\Work-2018.2\APP6-GE\S4e-APP6-Vivado_Etudiant\APP6\APP6.sdk\standalone_bsp_0\microblaze_0\lib\libgcc.a(_addsub_df.o)
                              C:\ZYBO\Work-2018.2\APP6-GE\S4e-APP6-Vivado_Etudiant\APP6\APP6.sdk\standalone_bsp_0\microblaze_0\lib\libc.a(lib_a-dtoa.o) (__adddf3)
C:\ZYBO\Work-2018.2\APP6-GE\S4e-APP6-Vivado_Etudiant\APP6\APP6.sdk\standalone_bsp_0\microblaze_0\lib\libgcc.a(_mul_df.o)
                              C:\ZYBO\Work-2018.2\APP6-GE\S4e-APP6-Vivado_Etudiant\APP6\APP6.sdk\standalone_bsp_0\microblaze_0\lib\libc.a(lib_a-svfprintf.o) (__muldf3)
C:\ZYBO\Work-2018.2\APP6-GE\S4e-APP6-Vivado_Etudiant\APP6\APP6.sdk\standalone_bsp_0\microblaze_0\lib\libgcc.a(_div_df.o)
                              C:\ZYBO\Work-2018.2\APP6-GE\S4e-APP6-Vivado_Etudiant\APP6\APP6.sdk\standalone_bsp_0\microblaze_0\lib\libc.a(lib_a-svfprintf.o) (__divdf3)
C:\ZYBO\Work-2018.2\APP6-GE\S4e-APP6-Vivado_Etudiant\APP6\APP6.sdk\standalone_bsp_0\microblaze_0\lib\libgcc.a(_eq_df.o)
                              C:\ZYBO\Work-2018.2\APP6-GE\S4e-APP6-Vivado_Etudiant\APP6\APP6.sdk\standalone_bsp_0\microblaze_0\lib\libc.a(lib_a-svfprintf.o) (__eqdf2)
C:\ZYBO\Work-2018.2\APP6-GE\S4e-APP6-Vivado_Etudiant\APP6\APP6.sdk\standalone_bsp_0\microblaze_0\lib\libgcc.a(_ne_df.o)
                              C:\ZYBO\Work-2018.2\APP6-GE\S4e-APP6-Vivado_Etudiant\APP6\APP6.sdk\standalone_bsp_0\microblaze_0\lib\libc.a(lib_a-svfprintf.o) (__nedf2)
C:\ZYBO\Work-2018.2\APP6-GE\S4e-APP6-Vivado_Etudiant\APP6\APP6.sdk\standalone_bsp_0\microblaze_0\lib\libgcc.a(_gt_df.o)
                              C:\ZYBO\Work-2018.2\APP6-GE\S4e-APP6-Vivado_Etudiant\APP6\APP6.sdk\standalone_bsp_0\microblaze_0\lib\libc.a(lib_a-svfprintf.o) (__gtdf2)
C:\ZYBO\Work-2018.2\APP6-GE\S4e-APP6-Vivado_Etudiant\APP6\APP6.sdk\standalone_bsp_0\microblaze_0\lib\libgcc.a(_lt_df.o)
                              C:\ZYBO\Work-2018.2\APP6-GE\S4e-APP6-Vivado_Etudiant\APP6\APP6.sdk\standalone_bsp_0\microblaze_0\lib\libc.a(lib_a-svfprintf.o) (__ltdf2)
C:\ZYBO\Work-2018.2\APP6-GE\S4e-APP6-Vivado_Etudiant\APP6\APP6.sdk\standalone_bsp_0\microblaze_0\lib\libgcc.a(_le_df.o)
                              C:\ZYBO\Work-2018.2\APP6-GE\S4e-APP6-Vivado_Etudiant\APP6\APP6.sdk\standalone_bsp_0\microblaze_0\lib\libc.a(lib_a-svfprintf.o) (__ledf2)
C:\ZYBO\Work-2018.2\APP6-GE\S4e-APP6-Vivado_Etudiant\APP6\APP6.sdk\standalone_bsp_0\microblaze_0\lib\libgcc.a(_unord_df.o)
                              C:\ZYBO\Work-2018.2\APP6-GE\S4e-APP6-Vivado_Etudiant\APP6\APP6.sdk\standalone_bsp_0\microblaze_0\lib\libc.a(lib_a-svfprintf.o) (__unorddf2)
C:\ZYBO\Work-2018.2\APP6-GE\S4e-APP6-Vivado_Etudiant\APP6\APP6.sdk\standalone_bsp_0\microblaze_0\lib\libgcc.a(_si_to_df.o)
                              C:\ZYBO\Work-2018.2\APP6-GE\S4e-APP6-Vivado_Etudiant\APP6\APP6.sdk\standalone_bsp_0\microblaze_0\lib\libc.a(lib_a-svfprintf.o) (__floatsidf)
C:\ZYBO\Work-2018.2\APP6-GE\S4e-APP6-Vivado_Etudiant\APP6\APP6.sdk\standalone_bsp_0\microblaze_0\lib\libgcc.a(_df_to_si.o)
                              C:\ZYBO\Work-2018.2\APP6-GE\S4e-APP6-Vivado_Etudiant\APP6\APP6.sdk\standalone_bsp_0\microblaze_0\lib\libc.a(lib_a-svfprintf.o) (__fixdfsi)
C:\ZYBO\Work-2018.2\APP6-GE\S4e-APP6-Vivado_Etudiant\APP6\APP6.sdk\standalone_bsp_0\microblaze_0\lib\libgcc.a(_thenan_df.o)
                              C:\ZYBO\Work-2018.2\APP6-GE\S4e-APP6-Vivado_Etudiant\APP6\APP6.sdk\standalone_bsp_0\microblaze_0\lib\libgcc.a(_addsub_df.o) (__thenan_df)
C:\ZYBO\Work-2018.2\APP6-GE\S4e-APP6-Vivado_Etudiant\APP6\APP6.sdk\standalone_bsp_0\microblaze_0\lib\libgcc.a(_usi_to_df.o)
                              C:\ZYBO\Work-2018.2\APP6-GE\S4e-APP6-Vivado_Etudiant\APP6\APP6.sdk\standalone_bsp_0\microblaze_0\lib\libc.a(lib_a-dtoa.o) (__floatunsidf)
C:\ZYBO\Work-2018.2\APP6-GE\S4e-APP6-Vivado_Etudiant\APP6\APP6.sdk\standalone_bsp_0\microblaze_0\lib\libgcc.a(divsi3.o)
                              C:\ZYBO\Work-2018.2\APP6-GE\S4e-APP6-Vivado_Etudiant\APP6\APP6.sdk\standalone_bsp_0\microblaze_0\lib\libc.a(lib_a-svfprintf.o) (__divsi3)
C:\ZYBO\Work-2018.2\APP6-GE\S4e-APP6-Vivado_Etudiant\APP6\APP6.sdk\standalone_bsp_0\microblaze_0\lib\libgcc.a(modsi3.o)
                              C:\ZYBO\Work-2018.2\APP6-GE\S4e-APP6-Vivado_Etudiant\APP6\APP6.sdk\standalone_bsp_0\microblaze_0\lib\libc.a(lib_a-svfprintf.o) (__modsi3)
C:\ZYBO\Work-2018.2\APP6-GE\S4e-APP6-Vivado_Etudiant\APP6\APP6.sdk\standalone_bsp_0\microblaze_0\lib\libgcc.a(udivsi3.o)
                              C:\ZYBO\Work-2018.2\APP6-GE\S4e-APP6-Vivado_Etudiant\APP6\APP6.sdk\standalone_bsp_0\microblaze_0\lib\libc.a(lib_a-dtoa.o) (__udivsi3)
C:\ZYBO\Work-2018.2\APP6-GE\S4e-APP6-Vivado_Etudiant\APP6\APP6.sdk\standalone_bsp_0\microblaze_0\lib\libgcc.a(umodsi3.o)
                              C:\ZYBO\Work-2018.2\APP6-GE\S4e-APP6-Vivado_Etudiant\APP6\APP6.sdk\standalone_bsp_0\microblaze_0\lib\libgcc.a(_udivdi3.o) (__umodsi3)
C:\ZYBO\Work-2018.2\APP6-GE\S4e-APP6-Vivado_Etudiant\APP6\APP6.sdk\standalone_bsp_0\microblaze_0\lib\libgcc.a(_muldi3.o)
                              C:\ZYBO\Work-2018.2\APP6-GE\S4e-APP6-Vivado_Etudiant\APP6\APP6.sdk\standalone_bsp_0\microblaze_0\lib\libgcc.a(_mul_df.o) (__muldi3)
C:\ZYBO\Work-2018.2\APP6-GE\S4e-APP6-Vivado_Etudiant\APP6\APP6.sdk\standalone_bsp_0\microblaze_0\lib\libgcc.a(_clz.o)
                              C:\ZYBO\Work-2018.2\APP6-GE\S4e-APP6-Vivado_Etudiant\APP6\APP6.sdk\standalone_bsp_0\microblaze_0\lib\libgcc.a(_udivdi3.o) (__clz_tab)
C:\ZYBO\Work-2018.2\APP6-GE\S4e-APP6-Vivado_Etudiant\APP6\APP6.sdk\standalone_bsp_0\microblaze_0\lib\libgcc.a(_clzsi2.o)
                              C:\ZYBO\Work-2018.2\APP6-GE\S4e-APP6-Vivado_Etudiant\APP6\APP6.sdk\standalone_bsp_0\microblaze_0\lib\libgcc.a(_si_to_df.o) (__clzsi2)
C:\ZYBO\Work-2018.2\APP6-GE\S4e-APP6-Vivado_Etudiant\APP6\APP6.sdk\standalone_bsp_0\microblaze_0\lib\libgcc.a(_pack_df.o)
                              C:\ZYBO\Work-2018.2\APP6-GE\S4e-APP6-Vivado_Etudiant\APP6\APP6.sdk\standalone_bsp_0\microblaze_0\lib\libgcc.a(_addsub_df.o) (__pack_d)
C:\ZYBO\Work-2018.2\APP6-GE\S4e-APP6-Vivado_Etudiant\APP6\APP6.sdk\standalone_bsp_0\microblaze_0\lib\libgcc.a(_unpack_df.o)
                              C:\ZYBO\Work-2018.2\APP6-GE\S4e-APP6-Vivado_Etudiant\APP6\APP6.sdk\standalone_bsp_0\microblaze_0\lib\libgcc.a(_addsub_df.o) (__unpack_d)
C:\ZYBO\Work-2018.2\APP6-GE\S4e-APP6-Vivado_Etudiant\APP6\APP6.sdk\standalone_bsp_0\microblaze_0\lib\libgcc.a(_fpcmp_parts_df.o)
                              C:\ZYBO\Work-2018.2\APP6-GE\S4e-APP6-Vivado_Etudiant\APP6\APP6.sdk\standalone_bsp_0\microblaze_0\lib\libgcc.a(_eq_df.o) (__fpcmp_parts_d)
C:\ZYBO\Work-2018.2\APP6-GE\S4e-APP6-Vivado_Etudiant\APP6\APP6.sdk\standalone_bsp_0\microblaze_0\lib\libgloss.a(sbrk.o)
                              C:\ZYBO\Work-2018.2\APP6-GE\S4e-APP6-Vivado_Etudiant\APP6\APP6.sdk\standalone_bsp_0\microblaze_0\lib\libc.a(lib_a-sbrkr.o) (sbrk)
C:\ZYBO\Work-2018.2\APP6-GE\S4e-APP6-Vivado_Etudiant\APP6\APP6.sdk\standalone_bsp_0\microblaze_0\lib\libxil.a(errno.o)
                              C:\ZYBO\Work-2018.2\APP6-GE\S4e-APP6-Vivado_Etudiant\APP6\APP6.sdk\standalone_bsp_0\microblaze_0\lib\libgloss.a(sbrk.o) (__errno)

Allocating common symbols
Common symbol       size              file

errno               0x4               C:\ZYBO\Work-2018.2\APP6-GE\S4e-APP6-Vivado_Etudiant\APP6\APP6.sdk\standalone_bsp_0\microblaze_0\lib\libc.a(lib_a-reent.o)
XIntc_BitPosMask    0x80              C:\ZYBO\Work-2018.2\APP6-GE\S4e-APP6-Vivado_Etudiant\APP6\APP6.sdk\standalone_bsp_0\microblaze_0\lib\libxil.a(xintc.o)
Xil_AssertStatus    0x4               C:\ZYBO\Work-2018.2\APP6-GE\S4e-APP6-Vivado_Etudiant\APP6\APP6.sdk\standalone_bsp_0\microblaze_0\lib\libxil.a(xil_assert.o)

Discarded input sections

 .data          0x00000000        0x0 d:/xilinx/sdk/2018.2/gnu/microblaze/nt/bin/../lib/gcc/microblaze-xilinx-elf/7.2.0/../../../../microblaze-xilinx-elf/lib/m/le/crt0.o
 .bss           0x00000000        0x0 d:/xilinx/sdk/2018.2/gnu/microblaze/nt/bin/../lib/gcc/microblaze-xilinx-elf/7.2.0/../../../../microblaze-xilinx-elf/lib/m/le/crt0.o
 .text          0x00000000        0x0 d:/xilinx/sdk/2018.2/gnu/microblaze/nt/bin/../lib/gcc/microblaze-xilinx-elf/7.2.0/m/le/crti.o
 .data          0x00000000        0x0 d:/xilinx/sdk/2018.2/gnu/microblaze/nt/bin/../lib/gcc/microblaze-xilinx-elf/7.2.0/m/le/crti.o
 .bss           0x00000000        0x0 d:/xilinx/sdk/2018.2/gnu/microblaze/nt/bin/../lib/gcc/microblaze-xilinx-elf/7.2.0/m/le/crti.o
 .data          0x00000000        0x8 d:/xilinx/sdk/2018.2/gnu/microblaze/nt/bin/../lib/gcc/microblaze-xilinx-elf/7.2.0/m/le/crtbegin.o
 .data          0x00000000        0x0 d:/xilinx/sdk/2018.2/gnu/microblaze/nt/bin/../lib/gcc/microblaze-xilinx-elf/7.2.0/../../../../microblaze-xilinx-elf/lib/m/le/crtinit.o
 .bss           0x00000000        0x0 d:/xilinx/sdk/2018.2/gnu/microblaze/nt/bin/../lib/gcc/microblaze-xilinx-elf/7.2.0/../../../../microblaze-xilinx-elf/lib/m/le/crtinit.o
 .text          0x00000000        0x0 ./cyclone_tcp/std_services/echo.o
 .data          0x00000000        0x0 ./cyclone_tcp/std_services/echo.o
 .bss           0x00000000        0x0 ./cyclone_tcp/std_services/echo.o
 .eh_frame      0x00000000       0x50 ./cyclone_tcp/std_services/echo.o
 .text          0x00000000        0x0 ./cyclone_tcp/ipv4/arp.o
 .data          0x00000000        0x0 ./cyclone_tcp/ipv4/arp.o
 .bss           0x00000000        0x0 ./cyclone_tcp/ipv4/arp.o
 .text.arpSendProbe
                0x00000000      0x210 ./cyclone_tcp/ipv4/arp.o
 .text.arpDumpPacket
                0x00000000        0x8 ./cyclone_tcp/ipv4/arp.o
 .eh_frame      0x00000000      0x258 ./cyclone_tcp/ipv4/arp.o
 .text          0x00000000        0x0 ./cyclone_tcp/ipv4/ipv4.o
 .data          0x00000000        0x0 ./cyclone_tcp/ipv4/ipv4.o
 .bss           0x00000000        0x0 ./cyclone_tcp/ipv4/ipv4.o
 .text.ipv4GetHostAddr
                0x00000000       0xb4 ./cyclone_tcp/ipv4/ipv4.o
 .text.ipv4GetSubnetMask
                0x00000000       0x9c ./cyclone_tcp/ipv4/ipv4.o
 .text.ipv4GetDefaultGateway
                0x00000000       0x9c ./cyclone_tcp/ipv4/ipv4.o
 .text.ipv4GetDnsServer
                0x00000000       0xc8 ./cyclone_tcp/ipv4/ipv4.o
 .text.ipv4GetBroadcastAddr
                0x00000000       0x58 ./cyclone_tcp/ipv4/ipv4.o
 .text.ipv4GetAddrScope
                0x00000000       0x5c ./cyclone_tcp/ipv4/ipv4.o
 .text.ipv4GetPrefixLength
                0x00000000       0x70 ./cyclone_tcp/ipv4/ipv4.o
 .text.ipv4JoinMulticastGroup
                0x00000000      0x130 ./cyclone_tcp/ipv4/ipv4.o
 .text.ipv4LeaveMulticastGroup
                0x00000000       0xe8 ./cyclone_tcp/ipv4/ipv4.o
 .text.ipv4UpdateInStats
                0x00000000        0x8 ./cyclone_tcp/ipv4/ipv4.o
 .text.ipv4AddrToString
                0x00000000       0x8c ./cyclone_tcp/ipv4/ipv4.o
 .text.ipv4DumpHeader
                0x00000000        0x8 ./cyclone_tcp/ipv4/ipv4.o
 .bss._ZZ16ipv4AddrToStringE6buffer
                0x00000000       0x10 ./cyclone_tcp/ipv4/ipv4.o
 .eh_frame      0x00000000      0x358 ./cyclone_tcp/ipv4/ipv4.o
 .text          0x00000000        0x0 ./cyclone_tcp/drivers/eth/enc624j600_driver.o
 .data          0x00000000        0x0 ./cyclone_tcp/drivers/eth/enc624j600_driver.o
 .bss           0x00000000        0x0 ./cyclone_tcp/drivers/eth/enc624j600_driver.o
 .text.enc624j600DumpReg
                0x00000000        0x8 ./cyclone_tcp/drivers/eth/enc624j600_driver.o
 .text.enc624j600DumpPhyReg
                0x00000000        0x8 ./cyclone_tcp/drivers/eth/enc624j600_driver.o
 .eh_frame      0x00000000      0x2c8 ./cyclone_tcp/drivers/eth/enc624j600_driver.o
 .text          0x00000000        0x0 ./cyclone_tcp/core/ethernet.o
 .data          0x00000000        0x0 ./cyclone_tcp/core/ethernet.o
 .bss           0x00000000        0x0 ./cyclone_tcp/core/ethernet.o
 .text.ethAcceptMacAddr
                0x00000000      0x10c ./cyclone_tcp/core/ethernet.o
 .text.ethDropMacAddr
                0x00000000       0xd4 ./cyclone_tcp/core/ethernet.o
 .text.ethUpdateInStats
                0x00000000        0x8 ./cyclone_tcp/core/ethernet.o
 .text.ethUpdateOutStats
                0x00000000        0x8 ./cyclone_tcp/core/ethernet.o
 .text.ethUpdateErrorStats
                0x00000000        0x8 ./cyclone_tcp/core/ethernet.o
 .text.macAddrToString
                0x00000000       0x64 ./cyclone_tcp/core/ethernet.o
 .text.ethDumpHeader
                0x00000000        0x8 ./cyclone_tcp/core/ethernet.o
 .text.eui64StringToAddr
                0x00000000      0x174 ./cyclone_tcp/core/ethernet.o
 .text.eui64AddrToString
                0x00000000       0x74 ./cyclone_tcp/core/ethernet.o
 .bss._ZZ17eui64AddrToStringE6buffer
                0x00000000       0x18 ./cyclone_tcp/core/ethernet.o
 .rodata.EUI64_UNSPECIFIED_ADDR
                0x00000000        0x8 ./cyclone_tcp/core/ethernet.o
 .bss._ZZ15macAddrToStringE6buffer
                0x00000000       0x12 ./cyclone_tcp/core/ethernet.o
 .eh_frame      0x00000000      0x15c ./cyclone_tcp/core/ethernet.o
 .text          0x00000000        0x0 ./cyclone_tcp/core/ip.o
 .data          0x00000000        0x0 ./cyclone_tcp/core/ip.o
 .bss           0x00000000        0x0 ./cyclone_tcp/core/ip.o
 .text.ipSelectSourceAddr
                0x00000000       0x40 ./cyclone_tcp/core/ip.o
 .text.ipCompAddr
                0x00000000       0x5c ./cyclone_tcp/core/ip.o
 .text.ipIsUnspecifiedAddr
                0x00000000       0x3c ./cyclone_tcp/core/ip.o
 .text.ipJoinMulticastGroup
                0x00000000       0x8c ./cyclone_tcp/core/ip.o
 .text.ipLeaveMulticastGroup
                0x00000000       0x8c ./cyclone_tcp/core/ip.o
 .text.ipCalcUpperLayerChecksum
                0x00000000       0x94 ./cyclone_tcp/core/ip.o
 .text.ipStringToAddr
                0x00000000       0x60 ./cyclone_tcp/core/ip.o
 .text.ipAddrToString
                0x00000000       0x44 ./cyclone_tcp/core/ip.o
 .bss._ZZ14ipAddrToStringE1c
                0x00000000        0x1 ./cyclone_tcp/core/ip.o
 .rodata.IP_ADDR_UNSPECIFIED
                0x00000000        0x8 ./cyclone_tcp/core/ip.o
 .eh_frame      0x00000000      0x130 ./cyclone_tcp/core/ip.o
 .text          0x00000000        0x0 ./cyclone_tcp/core/net.o
 .data          0x00000000        0x0 ./cyclone_tcp/core/net.o
 .bss           0x00000000        0x0 ./cyclone_tcp/core/net.o
 .text.netGetMacAddr
                0x00000000       0xd0 ./cyclone_tcp/core/net.o
 .text.netSetEui64
                0x00000000       0xd4 ./cyclone_tcp/core/net.o
 .text.netGetEui64
                0x00000000       0xe0 ./cyclone_tcp/core/net.o
 .text.netSetInterfaceId
                0x00000000       0x60 ./cyclone_tcp/core/net.o
 .text.netSetProxy
                0x00000000       0x98 ./cyclone_tcp/core/net.o
 .text.netSetVlanId
                0x00000000        0x8 ./cyclone_tcp/core/net.o
 .text.netSetVmanId
                0x00000000        0x8 ./cyclone_tcp/core/net.o
 .text.netSetSwitchPort
                0x00000000        0x8 ./cyclone_tcp/core/net.o
 .text.netSetParentInterface
                0x00000000        0x8 ./cyclone_tcp/core/net.o
 .text.netSetPhyDriver
                0x00000000       0x98 ./cyclone_tcp/core/net.o
 .text.netSetPhyAddr
                0x00000000       0x74 ./cyclone_tcp/core/net.o
 .text.netSetUartDriver
                0x00000000       0x98 ./cyclone_tcp/core/net.o
 .text.netSetLinkState
                0x00000000       0x7c ./cyclone_tcp/core/net.o
 .text.netGetLinkState
                0x00000000       0x54 ./cyclone_tcp/core/net.o
 .text.netGetDefaultInterface
                0x00000000       0x10 ./cyclone_tcp/core/net.o
 .text.netGetRandRange
                0x00000000       0x58 ./cyclone_tcp/core/net.o
 .text.netAttachLinkChangeCallback
                0x00000000       0xc8 ./cyclone_tcp/core/net.o
 .text.netDetachLinkChangeCallback
                0x00000000       0x6c ./cyclone_tcp/core/net.o
 .eh_frame      0x00000000      0x43c ./cyclone_tcp/core/net.o
 .text          0x00000000        0x0 ./cyclone_tcp/core/net_mem.o
 .data          0x00000000        0x0 ./cyclone_tcp/core/net_mem.o
 .bss           0x00000000        0x0 ./cyclone_tcp/core/net_mem.o
 .text.memPoolGetStats
                0x00000000       0x20 ./cyclone_tcp/core/net_mem.o
 .text.netBufferConcat
                0x00000000       0xe4 ./cyclone_tcp/core/net_mem.o
 .text.netBufferWrite
                0x00000000       0xd8 ./cyclone_tcp/core/net_mem.o
 .eh_frame      0x00000000       0xc8 ./cyclone_tcp/core/net_mem.o
 .text          0x00000000        0x0 ./cyclone_tcp/core/nic.o
 .data          0x00000000        0x0 ./cyclone_tcp/core/nic.o
 .bss           0x00000000        0x0 ./cyclone_tcp/core/nic.o
 .text.nicUpdateMacAddrFilter
                0x00000000       0x6c ./cyclone_tcp/core/nic.o
 .eh_frame      0x00000000       0xd8 ./cyclone_tcp/core/nic.o
 .text          0x00000000        0x0 ./cyclone_tcp/core/socket.o
 .data          0x00000000        0x0 ./cyclone_tcp/core/socket.o
 .bss           0x00000000        0x0 ./cyclone_tcp/core/socket.o
 .text.socketSetTimeout
                0x00000000       0x60 ./cyclone_tcp/core/socket.o
 .text.socketSetTxBufferSize
                0x00000000        0x8 ./cyclone_tcp/core/socket.o
 .text.socketSetRxBufferSize
                0x00000000        0x8 ./cyclone_tcp/core/socket.o
 .text.socketBindToInterface
                0x00000000       0x18 ./cyclone_tcp/core/socket.o
 .text.socketConnect
                0x00000000       0x6c ./cyclone_tcp/core/socket.o
 .text.socketListen
                0x00000000        0x8 ./cyclone_tcp/core/socket.o
 .text.socketAccept
                0x00000000        0x8 ./cyclone_tcp/core/socket.o
 .text.socketSend
                0x00000000       0x38 ./cyclone_tcp/core/socket.o
 .text.socketReceive
                0x00000000       0x38 ./cyclone_tcp/core/socket.o
 .text.socketGetLocalAddr
                0x00000000       0x38 ./cyclone_tcp/core/socket.o
 .text.socketGetRemoteAddr
                0x00000000       0x38 ./cyclone_tcp/core/socket.o
 .text.socketShutdown
                0x00000000        0x8 ./cyclone_tcp/core/socket.o
 .text.socketRegisterEvents
                0x00000000       0x9c ./cyclone_tcp/core/socket.o
 .text.socketUnregisterEvents
                0x00000000       0x58 ./cyclone_tcp/core/socket.o
 .text.socketGetEvents
                0x00000000       0x68 ./cyclone_tcp/core/socket.o
 .text.socketPoll
                0x00000000      0x174 ./cyclone_tcp/core/socket.o
 .text.getHostByName
                0x00000000       0x74 ./cyclone_tcp/core/socket.o
 .eh_frame      0x00000000      0x28c ./cyclone_tcp/core/socket.o
 .text          0x00000000        0x0 ./cyclone_tcp/core/udp.o
 .data          0x00000000        0x0 ./cyclone_tcp/core/udp.o
 .bss           0x00000000        0x0 ./cyclone_tcp/core/udp.o
 .text.udpAttachRxCallback
                0x00000000       0xbc ./cyclone_tcp/core/udp.o
 .text.udpDetachRxCallback
                0x00000000       0xa8 ./cyclone_tcp/core/udp.o
 .text.udpDumpHeader
                0x00000000        0x8 ./cyclone_tcp/core/udp.o
 .eh_frame      0x00000000      0x21c ./cyclone_tcp/core/udp.o
 .text          0x00000000        0x0 ./cyclone_tcp/ext_int_driver.o
 .data          0x00000000        0x0 ./cyclone_tcp/ext_int_driver.o
 .bss           0x00000000        0x0 ./cyclone_tcp/ext_int_driver.o
 .eh_frame      0x00000000       0x70 ./cyclone_tcp/ext_int_driver.o
 .text          0x00000000        0x0 ./cyclone_tcp/main.o
 .data          0x00000000        0x0 ./cyclone_tcp/main.o
 .bss           0x00000000        0x0 ./cyclone_tcp/main.o
 .eh_frame      0x00000000       0xf8 ./cyclone_tcp/main.o
 .text          0x00000000        0x0 ./cyclone_tcp/spi_driver.o
 .data          0x00000000        0x0 ./cyclone_tcp/spi_driver.o
 .bss           0x00000000        0x0 ./cyclone_tcp/spi_driver.o
 .eh_frame      0x00000000       0x30 ./cyclone_tcp/spi_driver.o
 .text          0x00000000        0x0 ./common/cpu_endian.o
 .data          0x00000000        0x0 ./common/cpu_endian.o
 .bss           0x00000000        0x0 ./common/cpu_endian.o
 .text.swapInt32
                0x00000000        0x8 ./common/cpu_endian.o
 .text.swapInt64
                0x00000000        0xc ./common/cpu_endian.o
 .text.reverseInt4
                0x00000000       0x34 ./common/cpu_endian.o
 .text.reverseInt8
                0x00000000       0x54 ./common/cpu_endian.o
 .text.reverseInt16
                0x00000000       0x74 ./common/cpu_endian.o
 .text.reverseInt32
                0x00000000       0x74 ./common/cpu_endian.o
 .text.reverseInt64
                0x00000000       0xe4 ./common/cpu_endian.o
 .text          0x00000000        0x0 ./common/date_time.o
 .data          0x00000000        0x0 ./common/date_time.o
 .bss           0x00000000        0x0 ./common/date_time.o
 .rodata        0x00000000       0x9a ./common/date_time.o
 .text.formatSystemTime
                0x00000000      0x108 ./common/date_time.o
 .text.formatDate
                0x00000000       0xe4 ./common/date_time.o
 .text.getCurrentUnixTime
                0x00000000        0x8 ./common/date_time.o
 .text.convertDateToUnixTime
                0x00000000       0xa0 ./common/date_time.o
 .text.compareDateTime
                0x00000000       0xcc ./common/date_time.o
 .text.computeDayOfWeek
                0x00000000       0xa0 ./common/date_time.o
 .text.convertUnixTimeToDate
                0x00000000      0x13c ./common/date_time.o
 .text.getCurrentDate
                0x00000000       0x24 ./common/date_time.o
 .bss._ZZ10formatDateE6buffer
                0x00000000       0x28 ./common/date_time.o
 .bss._ZZ16formatSystemTimeE6buffer
                0x00000000       0x18 ./common/date_time.o
 .rodata._ZL6months
                0x00000000       0x82 ./common/date_time.o
 .rodata._ZL4days
                0x00000000       0x50 ./common/date_time.o
 .debug_frame   0x00000000       0xe0 ./common/date_time.o
 .debug_info    0x00000000      0xef7 ./common/date_time.o
 .debug_abbrev  0x00000000      0x2b0 ./common/date_time.o
 .debug_loc     0x00000000      0x9c2 ./common/date_time.o
 .debug_aranges
                0x00000000       0x58 ./common/date_time.o
 .debug_ranges  0x00000000       0x48 ./common/date_time.o
 .debug_line    0x00000000      0x6af ./common/date_time.o
 .debug_str     0x00000000      0x77c ./common/date_time.o
 .text          0x00000000        0x0 ./common/os_port_none.o
 .data          0x00000000        0x0 ./common/os_port_none.o
 .bss           0x00000000        0x0 ./common/os_port_none.o
 .text.osStartKernel
                0x00000000        0x8 ./common/os_port_none.o
 .text.osDeleteTask
                0x00000000        0x8 ./common/os_port_none.o
 .text.osDelayTask
                0x00000000        0x8 ./common/os_port_none.o
 .text.osSwitchTask
                0x00000000        0x8 ./common/os_port_none.o
 .text.osSuspendAllTasks
                0x00000000        0x8 ./common/os_port_none.o
 .text.osResumeAllTasks
                0x00000000        0x8 ./common/os_port_none.o
 .text.osCreateSemaphore
                0x00000000        0xc ./common/os_port_none.o
 .text.osDeleteSemaphore
                0x00000000        0x8 ./common/os_port_none.o
 .text.osWaitForSemaphore
                0x00000000       0x20 ./common/os_port_none.o
 .text.osReleaseSemaphore
                0x00000000       0x10 ./common/os_port_none.o
 .text.osDeleteMutex
                0x00000000        0x8 ./common/os_port_none.o
 .data          0x00000000        0x0 C:\ZYBO\Work-2018.2\APP6-GE\S4e-APP6-Vivado_Etudiant\APP6\APP6.sdk\standalone_bsp_0\microblaze_0\lib\libgloss.a(print.o)
 .bss           0x00000000        0x0 C:\ZYBO\Work-2018.2\APP6-GE\S4e-APP6-Vivado_Etudiant\APP6\APP6.sdk\standalone_bsp_0\microblaze_0\lib\libgloss.a(print.o)
 .data          0x00000000        0x0 C:\ZYBO\Work-2018.2\APP6-GE\S4e-APP6-Vivado_Etudiant\APP6\APP6.sdk\standalone_bsp_0\microblaze_0\lib\libgloss.a(_exception_handler.o)
 .bss           0x00000000        0x0 C:\ZYBO\Work-2018.2\APP6-GE\S4e-APP6-Vivado_Etudiant\APP6\APP6.sdk\standalone_bsp_0\microblaze_0\lib\libgloss.a(_exception_handler.o)
 .data          0x00000000        0x0 C:\ZYBO\Work-2018.2\APP6-GE\S4e-APP6-Vivado_Etudiant\APP6\APP6.sdk\standalone_bsp_0\microblaze_0\lib\libgloss.a(_program_clean.o)
 .bss           0x00000000        0x0 C:\ZYBO\Work-2018.2\APP6-GE\S4e-APP6-Vivado_Etudiant\APP6\APP6.sdk\standalone_bsp_0\microblaze_0\lib\libgloss.a(_program_clean.o)
 .data          0x00000000        0x0 C:\ZYBO\Work-2018.2\APP6-GE\S4e-APP6-Vivado_Etudiant\APP6\APP6.sdk\standalone_bsp_0\microblaze_0\lib\libgloss.a(_program_init.o)
 .bss           0x00000000        0x0 C:\ZYBO\Work-2018.2\APP6-GE\S4e-APP6-Vivado_Etudiant\APP6\APP6.sdk\standalone_bsp_0\microblaze_0\lib\libgloss.a(_program_init.o)
 .text          0x00000000        0x0 C:\ZYBO\Work-2018.2\APP6-GE\S4e-APP6-Vivado_Etudiant\APP6\APP6.sdk\standalone_bsp_0\microblaze_0\lib\libxil.a(xgpio.o)
 .data          0x00000000        0x0 C:\ZYBO\Work-2018.2\APP6-GE\S4e-APP6-Vivado_Etudiant\APP6\APP6.sdk\standalone_bsp_0\microblaze_0\lib\libxil.a(xgpio.o)
 .bss           0x00000000        0x0 C:\ZYBO\Work-2018.2\APP6-GE\S4e-APP6-Vivado_Etudiant\APP6\APP6.sdk\standalone_bsp_0\microblaze_0\lib\libxil.a(xgpio.o)
 .text.XGpio_GetDataDirection
                0x00000000      0x104 C:\ZYBO\Work-2018.2\APP6-GE\S4e-APP6-Vivado_Etudiant\APP6\APP6.sdk\standalone_bsp_0\microblaze_0\lib\libxil.a(xgpio.o)
 .text          0x00000000        0x0 C:\ZYBO\Work-2018.2\APP6-GE\S4e-APP6-Vivado_Etudiant\APP6\APP6.sdk\standalone_bsp_0\microblaze_0\lib\libxil.a(xgpio_sinit.o)
 .data          0x00000000        0x0 C:\ZYBO\Work-2018.2\APP6-GE\S4e-APP6-Vivado_Etudiant\APP6\APP6.sdk\standalone_bsp_0\microblaze_0\lib\libxil.a(xgpio_sinit.o)
 .bss           0x00000000        0x0 C:\ZYBO\Work-2018.2\APP6-GE\S4e-APP6-Vivado_Etudiant\APP6\APP6.sdk\standalone_bsp_0\microblaze_0\lib\libxil.a(xgpio_sinit.o)
 .text.XGpio_LookupConfig
                0x00000000       0x28 C:\ZYBO\Work-2018.2\APP6-GE\S4e-APP6-Vivado_Etudiant\APP6\APP6.sdk\standalone_bsp_0\microblaze_0\lib\libxil.a(xgpio_sinit.o)
 .text          0x00000000        0x0 C:\ZYBO\Work-2018.2\APP6-GE\S4e-APP6-Vivado_Etudiant\APP6\APP6.sdk\standalone_bsp_0\microblaze_0\lib\libxil.a(xintc.o)
 .data          0x00000000        0x0 C:\ZYBO\Work-2018.2\APP6-GE\S4e-APP6-Vivado_Etudiant\APP6\APP6.sdk\standalone_bsp_0\microblaze_0\lib\libxil.a(xintc.o)
 .bss           0x00000000        0x0 C:\ZYBO\Work-2018.2\APP6-GE\S4e-APP6-Vivado_Etudiant\APP6\APP6.sdk\standalone_bsp_0\microblaze_0\lib\libxil.a(xintc.o)
 .text.XIntc_Stop
                0x00000000       0x94 C:\ZYBO\Work-2018.2\APP6-GE\S4e-APP6-Vivado_Etudiant\APP6\APP6.sdk\standalone_bsp_0\microblaze_0\lib\libxil.a(xintc.o)
 .text.XIntc_Disconnect
                0x00000000      0x114 C:\ZYBO\Work-2018.2\APP6-GE\S4e-APP6-Vivado_Etudiant\APP6\APP6.sdk\standalone_bsp_0\microblaze_0\lib\libxil.a(xintc.o)
 .text.XIntc_LookupConfig
                0x00000000       0x28 C:\ZYBO\Work-2018.2\APP6-GE\S4e-APP6-Vivado_Etudiant\APP6\APP6.sdk\standalone_bsp_0\microblaze_0\lib\libxil.a(xintc.o)
 .text.XIntc_ConnectFastHandler
                0x00000000      0x1f4 C:\ZYBO\Work-2018.2\APP6-GE\S4e-APP6-Vivado_Etudiant\APP6\APP6.sdk\standalone_bsp_0\microblaze_0\lib\libxil.a(xintc.o)
 .text.XIntc_SetNormalIntrMode
                0x00000000      0x1b0 C:\ZYBO\Work-2018.2\APP6-GE\S4e-APP6-Vivado_Etudiant\APP6\APP6.sdk\standalone_bsp_0\microblaze_0\lib\libxil.a(xintc.o)
 .text          0x00000000        0x0 C:\ZYBO\Work-2018.2\APP6-GE\S4e-APP6-Vivado_Etudiant\APP6\APP6.sdk\standalone_bsp_0\microblaze_0\lib\libxil.a(xintc_g.o)
 .data          0x00000000        0x0 C:\ZYBO\Work-2018.2\APP6-GE\S4e-APP6-Vivado_Etudiant\APP6\APP6.sdk\standalone_bsp_0\microblaze_0\lib\libxil.a(xintc_g.o)
 .bss           0x00000000        0x0 C:\ZYBO\Work-2018.2\APP6-GE\S4e-APP6-Vivado_Etudiant\APP6\APP6.sdk\standalone_bsp_0\microblaze_0\lib\libxil.a(xintc_g.o)
 .text          0x00000000        0x0 C:\ZYBO\Work-2018.2\APP6-GE\S4e-APP6-Vivado_Etudiant\APP6\APP6.sdk\standalone_bsp_0\microblaze_0\lib\libxil.a(xintc_intr.o)
 .data          0x00000000        0x0 C:\ZYBO\Work-2018.2\APP6-GE\S4e-APP6-Vivado_Etudiant\APP6\APP6.sdk\standalone_bsp_0\microblaze_0\lib\libxil.a(xintc_intr.o)
 .bss           0x00000000        0x0 C:\ZYBO\Work-2018.2\APP6-GE\S4e-APP6-Vivado_Etudiant\APP6\APP6.sdk\standalone_bsp_0\microblaze_0\lib\libxil.a(xintc_intr.o)
 .text.XIntc_VoidInterruptHandler
                0x00000000       0x20 C:\ZYBO\Work-2018.2\APP6-GE\S4e-APP6-Vivado_Etudiant\APP6\APP6.sdk\standalone_bsp_0\microblaze_0\lib\libxil.a(xintc_intr.o)
 .text          0x00000000        0x0 C:\ZYBO\Work-2018.2\APP6-GE\S4e-APP6-Vivado_Etudiant\APP6\APP6.sdk\standalone_bsp_0\microblaze_0\lib\libxil.a(xintc_l.o)
 .data          0x00000000        0x0 C:\ZYBO\Work-2018.2\APP6-GE\S4e-APP6-Vivado_Etudiant\APP6\APP6.sdk\standalone_bsp_0\microblaze_0\lib\libxil.a(xintc_l.o)
 .bss           0x00000000        0x0 C:\ZYBO\Work-2018.2\APP6-GE\S4e-APP6-Vivado_Etudiant\APP6\APP6.sdk\standalone_bsp_0\microblaze_0\lib\libxil.a(xintc_l.o)
 .text.XIntc_LowLevelInterruptHandler
                0x00000000       0x20 C:\ZYBO\Work-2018.2\APP6-GE\S4e-APP6-Vivado_Etudiant\APP6\APP6.sdk\standalone_bsp_0\microblaze_0\lib\libxil.a(xintc_l.o)
 .text.XIntc_SetIntrSvcOption
                0x00000000       0x28 C:\ZYBO\Work-2018.2\APP6-GE\S4e-APP6-Vivado_Etudiant\APP6\APP6.sdk\standalone_bsp_0\microblaze_0\lib\libxil.a(xintc_l.o)
 .text.XIntc_RegisterHandler
                0x00000000       0xbc C:\ZYBO\Work-2018.2\APP6-GE\S4e-APP6-Vivado_Etudiant\APP6\APP6.sdk\standalone_bsp_0\microblaze_0\lib\libxil.a(xintc_l.o)
 .text.XIntc_RegisterFastHandler
                0x00000000      0x13c C:\ZYBO\Work-2018.2\APP6-GE\S4e-APP6-Vivado_Etudiant\APP6\APP6.sdk\standalone_bsp_0\microblaze_0\lib\libxil.a(xintc_l.o)
 .text          0x00000000        0x0 C:\ZYBO\Work-2018.2\APP6-GE\S4e-APP6-Vivado_Etudiant\APP6\APP6.sdk\standalone_bsp_0\microblaze_0\lib\libxil.a(xspi.o)
 .data          0x00000000        0x0 C:\ZYBO\Work-2018.2\APP6-GE\S4e-APP6-Vivado_Etudiant\APP6\APP6.sdk\standalone_bsp_0\microblaze_0\lib\libxil.a(xspi.o)
 .bss           0x00000000        0x0 C:\ZYBO\Work-2018.2\APP6-GE\S4e-APP6-Vivado_Etudiant\APP6\APP6.sdk\standalone_bsp_0\microblaze_0\lib\libxil.a(xspi.o)
 .text.XSpi_Start
                0x00000000       0xf0 C:\ZYBO\Work-2018.2\APP6-GE\S4e-APP6-Vivado_Etudiant\APP6\APP6.sdk\standalone_bsp_0\microblaze_0\lib\libxil.a(xspi.o)
 .text.XSpi_Stop
                0x00000000       0xd8 C:\ZYBO\Work-2018.2\APP6-GE\S4e-APP6-Vivado_Etudiant\APP6\APP6.sdk\standalone_bsp_0\microblaze_0\lib\libxil.a(xspi.o)
 .text.XSpi_Transfer
                0x00000000      0x40c C:\ZYBO\Work-2018.2\APP6-GE\S4e-APP6-Vivado_Etudiant\APP6\APP6.sdk\standalone_bsp_0\microblaze_0\lib\libxil.a(xspi.o)
 .text.XSpi_SetSlaveSelect
                0x00000000      0x12c C:\ZYBO\Work-2018.2\APP6-GE\S4e-APP6-Vivado_Etudiant\APP6\APP6.sdk\standalone_bsp_0\microblaze_0\lib\libxil.a(xspi.o)
 .text.XSpi_GetSlaveSelect
                0x00000000       0xac C:\ZYBO\Work-2018.2\APP6-GE\S4e-APP6-Vivado_Etudiant\APP6\APP6.sdk\standalone_bsp_0\microblaze_0\lib\libxil.a(xspi.o)
 .text.XSpi_SetStatusHandler
                0x00000000       0xc0 C:\ZYBO\Work-2018.2\APP6-GE\S4e-APP6-Vivado_Etudiant\APP6\APP6.sdk\standalone_bsp_0\microblaze_0\lib\libxil.a(xspi.o)
 .text.XSpi_InterruptHandler
                0x00000000      0x3c8 C:\ZYBO\Work-2018.2\APP6-GE\S4e-APP6-Vivado_Etudiant\APP6\APP6.sdk\standalone_bsp_0\microblaze_0\lib\libxil.a(xspi.o)
 .text.XSpi_Abort
                0x00000000       0x50 C:\ZYBO\Work-2018.2\APP6-GE\S4e-APP6-Vivado_Etudiant\APP6\APP6.sdk\standalone_bsp_0\microblaze_0\lib\libxil.a(xspi.o)
 .text          0x00000000        0x0 C:\ZYBO\Work-2018.2\APP6-GE\S4e-APP6-Vivado_Etudiant\APP6\APP6.sdk\standalone_bsp_0\microblaze_0\lib\libxil.a(xspi_sinit.o)
 .data          0x00000000        0x0 C:\ZYBO\Work-2018.2\APP6-GE\S4e-APP6-Vivado_Etudiant\APP6\APP6.sdk\standalone_bsp_0\microblaze_0\lib\libxil.a(xspi_sinit.o)
 .bss           0x00000000        0x0 C:\ZYBO\Work-2018.2\APP6-GE\S4e-APP6-Vivado_Etudiant\APP6\APP6.sdk\standalone_bsp_0\microblaze_0\lib\libxil.a(xspi_sinit.o)
 .rodata        0x00000000        0xd C:\ZYBO\Work-2018.2\APP6-GE\S4e-APP6-Vivado_Etudiant\APP6\APP6.sdk\standalone_bsp_0\microblaze_0\lib\libxil.a(xspi_sinit.o)
 .text.XSpi_Initialize
                0x00000000       0xa0 C:\ZYBO\Work-2018.2\APP6-GE\S4e-APP6-Vivado_Etudiant\APP6\APP6.sdk\standalone_bsp_0\microblaze_0\lib\libxil.a(xspi_sinit.o)
 .bss           0x00000000        0x0 C:\ZYBO\Work-2018.2\APP6-GE\S4e-APP6-Vivado_Etudiant\APP6\APP6.sdk\standalone_bsp_0\microblaze_0\lib\libxil.a(hw_exception_handler.o)
 .text          0x00000000        0x0 C:\ZYBO\Work-2018.2\APP6-GE\S4e-APP6-Vivado_Etudiant\APP6\APP6.sdk\standalone_bsp_0\microblaze_0\lib\libxil.a(microblaze_interrupt_handler.o)
 .data          0x00000000        0x0 C:\ZYBO\Work-2018.2\APP6-GE\S4e-APP6-Vivado_Etudiant\APP6\APP6.sdk\standalone_bsp_0\microblaze_0\lib\libxil.a(microblaze_interrupt_handler.o)
 .bss           0x00000000        0x0 C:\ZYBO\Work-2018.2\APP6-GE\S4e-APP6-Vivado_Etudiant\APP6\APP6.sdk\standalone_bsp_0\microblaze_0\lib\libxil.a(microblaze_interrupt_handler.o)
 .text.microblaze_register_handler
                0x00000000       0x14 C:\ZYBO\Work-2018.2\APP6-GE\S4e-APP6-Vivado_Etudiant\APP6\APP6.sdk\standalone_bsp_0\microblaze_0\lib\libxil.a(microblaze_interrupt_handler.o)
 .text          0x00000000        0x0 C:\ZYBO\Work-2018.2\APP6-GE\S4e-APP6-Vivado_Etudiant\APP6\APP6.sdk\standalone_bsp_0\microblaze_0\lib\libxil.a(microblaze_interrupts_g.o)
 .data          0x00000000        0x0 C:\ZYBO\Work-2018.2\APP6-GE\S4e-APP6-Vivado_Etudiant\APP6\APP6.sdk\standalone_bsp_0\microblaze_0\lib\libxil.a(microblaze_interrupts_g.o)
 .bss           0x00000000        0x0 C:\ZYBO\Work-2018.2\APP6-GE\S4e-APP6-Vivado_Etudiant\APP6\APP6.sdk\standalone_bsp_0\microblaze_0\lib\libxil.a(microblaze_interrupts_g.o)
 .text          0x00000000        0x0 C:\ZYBO\Work-2018.2\APP6-GE\S4e-APP6-Vivado_Etudiant\APP6\APP6.sdk\standalone_bsp_0\microblaze_0\lib\libxil.a(outbyte.o)
 .data          0x00000000        0x0 C:\ZYBO\Work-2018.2\APP6-GE\S4e-APP6-Vivado_Etudiant\APP6\APP6.sdk\standalone_bsp_0\microblaze_0\lib\libxil.a(outbyte.o)
 .bss           0x00000000        0x0 C:\ZYBO\Work-2018.2\APP6-GE\S4e-APP6-Vivado_Etudiant\APP6\APP6.sdk\standalone_bsp_0\microblaze_0\lib\libxil.a(outbyte.o)
 .text          0x00000000        0x0 C:\ZYBO\Work-2018.2\APP6-GE\S4e-APP6-Vivado_Etudiant\APP6\APP6.sdk\standalone_bsp_0\microblaze_0\lib\libxil.a(xil_assert.o)
 .data          0x00000000        0x0 C:\ZYBO\Work-2018.2\APP6-GE\S4e-APP6-Vivado_Etudiant\APP6\APP6.sdk\standalone_bsp_0\microblaze_0\lib\libxil.a(xil_assert.o)
 .bss           0x00000000        0x0 C:\ZYBO\Work-2018.2\APP6-GE\S4e-APP6-Vivado_Etudiant\APP6\APP6.sdk\standalone_bsp_0\microblaze_0\lib\libxil.a(xil_assert.o)
 .text.Xil_AssertSetCallback
                0x00000000       0x10 C:\ZYBO\Work-2018.2\APP6-GE\S4e-APP6-Vivado_Etudiant\APP6\APP6.sdk\standalone_bsp_0\microblaze_0\lib\libxil.a(xil_assert.o)
 .text          0x00000000        0x0 C:\ZYBO\Work-2018.2\APP6-GE\S4e-APP6-Vivado_Etudiant\APP6\APP6.sdk\standalone_bsp_0\microblaze_0\lib\libxil.a(xil_exception.o)
 .data          0x00000000        0x0 C:\ZYBO\Work-2018.2\APP6-GE\S4e-APP6-Vivado_Etudiant\APP6\APP6.sdk\standalone_bsp_0\microblaze_0\lib\libxil.a(xil_exception.o)
 .bss           0x00000000        0x0 C:\ZYBO\Work-2018.2\APP6-GE\S4e-APP6-Vivado_Etudiant\APP6\APP6.sdk\standalone_bsp_0\microblaze_0\lib\libxil.a(xil_exception.o)
 .text.Xil_ExceptionNullHandler
                0x00000000        0x8 C:\ZYBO\Work-2018.2\APP6-GE\S4e-APP6-Vivado_Etudiant\APP6\APP6.sdk\standalone_bsp_0\microblaze_0\lib\libxil.a(xil_exception.o)
 .text.Xil_ExceptionDisable
                0x00000000       0x2c C:\ZYBO\Work-2018.2\APP6-GE\S4e-APP6-Vivado_Etudiant\APP6\APP6.sdk\standalone_bsp_0\microblaze_0\lib\libxil.a(xil_exception.o)
 .text.Xil_ExceptionRemoveHandler
                0x00000000       0x48 C:\ZYBO\Work-2018.2\APP6-GE\S4e-APP6-Vivado_Etudiant\APP6\APP6.sdk\standalone_bsp_0\microblaze_0\lib\libxil.a(xil_exception.o)
 .text          0x00000000        0x0 C:\ZYBO\Work-2018.2\APP6-GE\S4e-APP6-Vivado_Etudiant\APP6\APP6.sdk\standalone_bsp_0\microblaze_0\lib\libxil.a(xil_printf.o)
 .data          0x00000000        0x0 C:\ZYBO\Work-2018.2\APP6-GE\S4e-APP6-Vivado_Etudiant\APP6\APP6.sdk\standalone_bsp_0\microblaze_0\lib\libxil.a(xil_printf.o)
 .bss           0x00000000        0x0 C:\ZYBO\Work-2018.2\APP6-GE\S4e-APP6-Vivado_Etudiant\APP6\APP6.sdk\standalone_bsp_0\microblaze_0\lib\libxil.a(xil_printf.o)
 .text          0x00000000        0x0 C:\ZYBO\Work-2018.2\APP6-GE\S4e-APP6-Vivado_Etudiant\APP6\APP6.sdk\standalone_bsp_0\microblaze_0\lib\libxil.a(xuartlite.o)
 .data          0x00000000        0x0 C:\ZYBO\Work-2018.2\APP6-GE\S4e-APP6-Vivado_Etudiant\APP6\APP6.sdk\standalone_bsp_0\microblaze_0\lib\libxil.a(xuartlite.o)
 .bss           0x00000000        0x0 C:\ZYBO\Work-2018.2\APP6-GE\S4e-APP6-Vivado_Etudiant\APP6\APP6.sdk\standalone_bsp_0\microblaze_0\lib\libxil.a(xuartlite.o)
 .text.XUartLite_IsSending
                0x00000000       0x70 C:\ZYBO\Work-2018.2\APP6-GE\S4e-APP6-Vivado_Etudiant\APP6\APP6.sdk\standalone_bsp_0\microblaze_0\lib\libxil.a(xuartlite.o)
 .text          0x00000000        0x0 C:\ZYBO\Work-2018.2\APP6-GE\S4e-APP6-Vivado_Etudiant\APP6\APP6.sdk\standalone_bsp_0\microblaze_0\lib\libxil.a(xuartlite_l.o)
 .data          0x00000000        0x0 C:\ZYBO\Work-2018.2\APP6-GE\S4e-APP6-Vivado_Etudiant\APP6\APP6.sdk\standalone_bsp_0\microblaze_0\lib\libxil.a(xuartlite_l.o)
 .bss           0x00000000        0x0 C:\ZYBO\Work-2018.2\APP6-GE\S4e-APP6-Vivado_Etudiant\APP6\APP6.sdk\standalone_bsp_0\microblaze_0\lib\libxil.a(xuartlite_l.o)
 .text.XUartLite_RecvByte
                0x00000000       0x1c C:\ZYBO\Work-2018.2\APP6-GE\S4e-APP6-Vivado_Etudiant\APP6\APP6.sdk\standalone_bsp_0\microblaze_0\lib\libxil.a(xuartlite_l.o)
 .text          0x00000000        0x0 C:\ZYBO\Work-2018.2\APP6-GE\S4e-APP6-Vivado_Etudiant\APP6\APP6.sdk\standalone_bsp_0\microblaze_0\lib\libxil.a(xuartlite_selftest.o)
 .data          0x00000000        0x0 C:\ZYBO\Work-2018.2\APP6-GE\S4e-APP6-Vivado_Etudiant\APP6\APP6.sdk\standalone_bsp_0\microblaze_0\lib\libxil.a(xuartlite_selftest.o)
 .bss           0x00000000        0x0 C:\ZYBO\Work-2018.2\APP6-GE\S4e-APP6-Vivado_Etudiant\APP6\APP6.sdk\standalone_bsp_0\microblaze_0\lib\libxil.a(xuartlite_selftest.o)
 .text          0x00000000        0x0 C:\ZYBO\Work-2018.2\APP6-GE\S4e-APP6-Vivado_Etudiant\APP6\APP6.sdk\standalone_bsp_0\microblaze_0\lib\libxil.a(xuartlite_sinit.o)
 .data          0x00000000        0x0 C:\ZYBO\Work-2018.2\APP6-GE\S4e-APP6-Vivado_Etudiant\APP6\APP6.sdk\standalone_bsp_0\microblaze_0\lib\libxil.a(xuartlite_sinit.o)
 .bss           0x00000000        0x0 C:\ZYBO\Work-2018.2\APP6-GE\S4e-APP6-Vivado_Etudiant\APP6\APP6.sdk\standalone_bsp_0\microblaze_0\lib\libxil.a(xuartlite_sinit.o)
 .text.XUartLite_LookupConfig
                0x00000000       0x28 C:\ZYBO\Work-2018.2\APP6-GE\S4e-APP6-Vivado_Etudiant\APP6\APP6.sdk\standalone_bsp_0\microblaze_0\lib\libxil.a(xuartlite_sinit.o)
 .text          0x00000000        0x0 C:\ZYBO\Work-2018.2\APP6-GE\S4e-APP6-Vivado_Etudiant\APP6\APP6.sdk\standalone_bsp_0\microblaze_0\lib\libxil.a(xuartlite_stats.o)
 .data          0x00000000        0x0 C:\ZYBO\Work-2018.2\APP6-GE\S4e-APP6-Vivado_Etudiant\APP6\APP6.sdk\standalone_bsp_0\microblaze_0\lib\libxil.a(xuartlite_stats.o)
 .bss           0x00000000        0x0 C:\ZYBO\Work-2018.2\APP6-GE\S4e-APP6-Vivado_Etudiant\APP6\APP6.sdk\standalone_bsp_0\microblaze_0\lib\libxil.a(xuartlite_stats.o)
 .text.XUartLite_GetStats
                0x00000000       0xf0 C:\ZYBO\Work-2018.2\APP6-GE\S4e-APP6-Vivado_Etudiant\APP6\APP6.sdk\standalone_bsp_0\microblaze_0\lib\libxil.a(xuartlite_stats.o)
 .text          0x00000000        0x0 C:\ZYBO\Work-2018.2\APP6-GE\S4e-APP6-Vivado_Etudiant\APP6\APP6.sdk\standalone_bsp_0\microblaze_0\lib\libxil.a(xgpio_g.o)
 .data          0x00000000        0x0 C:\ZYBO\Work-2018.2\APP6-GE\S4e-APP6-Vivado_Etudiant\APP6\APP6.sdk\standalone_bsp_0\microblaze_0\lib\libxil.a(xgpio_g.o)
 .bss           0x00000000        0x0 C:\ZYBO\Work-2018.2\APP6-GE\S4e-APP6-Vivado_Etudiant\APP6\APP6.sdk\standalone_bsp_0\microblaze_0\lib\libxil.a(xgpio_g.o)
 .text          0x00000000        0x0 C:\ZYBO\Work-2018.2\APP6-GE\S4e-APP6-Vivado_Etudiant\APP6\APP6.sdk\standalone_bsp_0\microblaze_0\lib\libxil.a(xspi_g.o)
 .data          0x00000000        0x0 C:\ZYBO\Work-2018.2\APP6-GE\S4e-APP6-Vivado_Etudiant\APP6\APP6.sdk\standalone_bsp_0\microblaze_0\lib\libxil.a(xspi_g.o)
 .bss           0x00000000        0x0 C:\ZYBO\Work-2018.2\APP6-GE\S4e-APP6-Vivado_Etudiant\APP6\APP6.sdk\standalone_bsp_0\microblaze_0\lib\libxil.a(xspi_g.o)
 .text          0x00000000       0x14 C:\ZYBO\Work-2018.2\APP6-GE\S4e-APP6-Vivado_Etudiant\APP6\APP6.sdk\standalone_bsp_0\microblaze_0\lib\libxil.a(microblaze_disable_exceptions.o)
 .data          0x00000000        0x0 C:\ZYBO\Work-2018.2\APP6-GE\S4e-APP6-Vivado_Etudiant\APP6\APP6.sdk\standalone_bsp_0\microblaze_0\lib\libxil.a(microblaze_disable_exceptions.o)
 .bss           0x00000000        0x0 C:\ZYBO\Work-2018.2\APP6-GE\S4e-APP6-Vivado_Etudiant\APP6\APP6.sdk\standalone_bsp_0\microblaze_0\lib\libxil.a(microblaze_disable_exceptions.o)
 .text          0x00000000       0x14 C:\ZYBO\Work-2018.2\APP6-GE\S4e-APP6-Vivado_Etudiant\APP6\APP6.sdk\standalone_bsp_0\microblaze_0\lib\libxil.a(microblaze_disable_interrupts.o)
 .data          0x00000000        0x0 C:\ZYBO\Work-2018.2\APP6-GE\S4e-APP6-Vivado_Etudiant\APP6\APP6.sdk\standalone_bsp_0\microblaze_0\lib\libxil.a(microblaze_disable_interrupts.o)
 .bss           0x00000000        0x0 C:\ZYBO\Work-2018.2\APP6-GE\S4e-APP6-Vivado_Etudiant\APP6\APP6.sdk\standalone_bsp_0\microblaze_0\lib\libxil.a(microblaze_disable_interrupts.o)
 .data          0x00000000        0x0 C:\ZYBO\Work-2018.2\APP6-GE\S4e-APP6-Vivado_Etudiant\APP6\APP6.sdk\standalone_bsp_0\microblaze_0\lib\libxil.a(microblaze_enable_exceptions.o)
 .bss           0x00000000        0x0 C:\ZYBO\Work-2018.2\APP6-GE\S4e-APP6-Vivado_Etudiant\APP6\APP6.sdk\standalone_bsp_0\microblaze_0\lib\libxil.a(microblaze_enable_exceptions.o)
 .data          0x00000000        0x0 C:\ZYBO\Work-2018.2\APP6-GE\S4e-APP6-Vivado_Etudiant\APP6\APP6.sdk\standalone_bsp_0\microblaze_0\lib\libxil.a(microblaze_enable_interrupts.o)
 .bss           0x00000000        0x0 C:\ZYBO\Work-2018.2\APP6-GE\S4e-APP6-Vivado_Etudiant\APP6\APP6.sdk\standalone_bsp_0\microblaze_0\lib\libxil.a(microblaze_enable_interrupts.o)
 .text          0x00000000        0x0 C:\ZYBO\Work-2018.2\APP6-GE\S4e-APP6-Vivado_Etudiant\APP6\APP6.sdk\standalone_bsp_0\microblaze_0\lib\libxil.a(xuartlite_g.o)
 .data          0x00000000        0x0 C:\ZYBO\Work-2018.2\APP6-GE\S4e-APP6-Vivado_Etudiant\APP6\APP6.sdk\standalone_bsp_0\microblaze_0\lib\libxil.a(xuartlite_g.o)
 .bss           0x00000000        0x0 C:\ZYBO\Work-2018.2\APP6-GE\S4e-APP6-Vivado_Etudiant\APP6\APP6.sdk\standalone_bsp_0\microblaze_0\lib\libxil.a(xuartlite_g.o)
 .text          0x00000000        0x0 C:\ZYBO\Work-2018.2\APP6-GE\S4e-APP6-Vivado_Etudiant\APP6\APP6.sdk\standalone_bsp_0\microblaze_0\lib\libc.a(lib_a-ctype_.o)
 .bss           0x00000000        0x0 C:\ZYBO\Work-2018.2\APP6-GE\S4e-APP6-Vivado_Etudiant\APP6\APP6.sdk\standalone_bsp_0\microblaze_0\lib\libc.a(lib_a-ctype_.o)
 .data          0x00000000        0x0 C:\ZYBO\Work-2018.2\APP6-GE\S4e-APP6-Vivado_Etudiant\APP6\APP6.sdk\standalone_bsp_0\microblaze_0\lib\libc.a(lib_a-exit.o)
 .bss           0x00000000        0x0 C:\ZYBO\Work-2018.2\APP6-GE\S4e-APP6-Vivado_Etudiant\APP6\APP6.sdk\standalone_bsp_0\microblaze_0\lib\libc.a(lib_a-exit.o)
 .text          0x00000000        0x0 C:\ZYBO\Work-2018.2\APP6-GE\S4e-APP6-Vivado_Etudiant\APP6\APP6.sdk\standalone_bsp_0\microblaze_0\lib\libc.a(lib_a-impure.o)
 .bss           0x00000000        0x0 C:\ZYBO\Work-2018.2\APP6-GE\S4e-APP6-Vivado_Etudiant\APP6\APP6.sdk\standalone_bsp_0\microblaze_0\lib\libc.a(lib_a-impure.o)
 .data          0x00000000        0x0 C:\ZYBO\Work-2018.2\APP6-GE\S4e-APP6-Vivado_Etudiant\APP6\APP6.sdk\standalone_bsp_0\microblaze_0\lib\libc.a(lib_a-isupper.o)
 .bss           0x00000000        0x0 C:\ZYBO\Work-2018.2\APP6-GE\S4e-APP6-Vivado_Etudiant\APP6\APP6.sdk\standalone_bsp_0\microblaze_0\lib\libc.a(lib_a-isupper.o)
 .data          0x00000000        0x0 C:\ZYBO\Work-2018.2\APP6-GE\S4e-APP6-Vivado_Etudiant\APP6\APP6.sdk\standalone_bsp_0\microblaze_0\lib\libc.a(lib_a-isxdigit.o)
 .bss           0x00000000        0x0 C:\ZYBO\Work-2018.2\APP6-GE\S4e-APP6-Vivado_Etudiant\APP6\APP6.sdk\standalone_bsp_0\microblaze_0\lib\libc.a(lib_a-isxdigit.o)
 .data          0x00000000        0x0 C:\ZYBO\Work-2018.2\APP6-GE\S4e-APP6-Vivado_Etudiant\APP6\APP6.sdk\standalone_bsp_0\microblaze_0\lib\libc.a(lib_a-malloc.o)
 .bss           0x00000000        0x0 C:\ZYBO\Work-2018.2\APP6-GE\S4e-APP6-Vivado_Etudiant\APP6\APP6.sdk\standalone_bsp_0\microblaze_0\lib\libc.a(lib_a-malloc.o)
 .data          0x00000000        0x0 C:\ZYBO\Work-2018.2\APP6-GE\S4e-APP6-Vivado_Etudiant\APP6\APP6.sdk\standalone_bsp_0\microblaze_0\lib\libc.a(lib_a-memcmp.o)
 .bss           0x00000000        0x0 C:\ZYBO\Work-2018.2\APP6-GE\S4e-APP6-Vivado_Etudiant\APP6\APP6.sdk\standalone_bsp_0\microblaze_0\lib\libc.a(lib_a-memcmp.o)
 .data          0x00000000        0x0 C:\ZYBO\Work-2018.2\APP6-GE\S4e-APP6-Vivado_Etudiant\APP6\APP6.sdk\standalone_bsp_0\microblaze_0\lib\libc.a(lib_a-memcpy.o)
 .bss           0x00000000        0x0 C:\ZYBO\Work-2018.2\APP6-GE\S4e-APP6-Vivado_Etudiant\APP6\APP6.sdk\standalone_bsp_0\microblaze_0\lib\libc.a(lib_a-memcpy.o)
 .data          0x00000000        0x0 C:\ZYBO\Work-2018.2\APP6-GE\S4e-APP6-Vivado_Etudiant\APP6\APP6.sdk\standalone_bsp_0\microblaze_0\lib\libc.a(lib_a-memset.o)
 .bss           0x00000000        0x0 C:\ZYBO\Work-2018.2\APP6-GE\S4e-APP6-Vivado_Etudiant\APP6\APP6.sdk\standalone_bsp_0\microblaze_0\lib\libc.a(lib_a-memset.o)
 .data          0x00000000        0x0 C:\ZYBO\Work-2018.2\APP6-GE\S4e-APP6-Vivado_Etudiant\APP6\APP6.sdk\standalone_bsp_0\microblaze_0\lib\libc.a(lib_a-mlock.o)
 .bss           0x00000000        0x4 C:\ZYBO\Work-2018.2\APP6-GE\S4e-APP6-Vivado_Etudiant\APP6\APP6.sdk\standalone_bsp_0\microblaze_0\lib\libc.a(lib_a-mlock.o)
 .data          0x00000000        0x0 C:\ZYBO\Work-2018.2\APP6-GE\S4e-APP6-Vivado_Etudiant\APP6\APP6.sdk\standalone_bsp_0\microblaze_0\lib\libc.a(lib_a-sbrkr.o)
 .bss           0x00000000        0x0 C:\ZYBO\Work-2018.2\APP6-GE\S4e-APP6-Vivado_Etudiant\APP6\APP6.sdk\standalone_bsp_0\microblaze_0\lib\libc.a(lib_a-sbrkr.o)
 .data          0x00000000        0x0 C:\ZYBO\Work-2018.2\APP6-GE\S4e-APP6-Vivado_Etudiant\APP6\APP6.sdk\standalone_bsp_0\microblaze_0\lib\libc.a(lib_a-sprintf.o)
 .bss           0x00000000        0x0 C:\ZYBO\Work-2018.2\APP6-GE\S4e-APP6-Vivado_Etudiant\APP6\APP6.sdk\standalone_bsp_0\microblaze_0\lib\libc.a(lib_a-sprintf.o)
 .text          0x00000000      0x260 C:\ZYBO\Work-2018.2\APP6-GE\S4e-APP6-Vivado_Etudiant\APP6\APP6.sdk\standalone_bsp_0\microblaze_0\lib\libc.a(lib_a-strchr.o)
 .data          0x00000000        0x0 C:\ZYBO\Work-2018.2\APP6-GE\S4e-APP6-Vivado_Etudiant\APP6\APP6.sdk\standalone_bsp_0\microblaze_0\lib\libc.a(lib_a-strchr.o)
 .bss           0x00000000        0x0 C:\ZYBO\Work-2018.2\APP6-GE\S4e-APP6-Vivado_Etudiant\APP6\APP6.sdk\standalone_bsp_0\microblaze_0\lib\libc.a(lib_a-strchr.o)
 .data          0x00000000        0x0 C:\ZYBO\Work-2018.2\APP6-GE\S4e-APP6-Vivado_Etudiant\APP6\APP6.sdk\standalone_bsp_0\microblaze_0\lib\libc.a(lib_a-strlen.o)
 .bss           0x00000000        0x0 C:\ZYBO\Work-2018.2\APP6-GE\S4e-APP6-Vivado_Etudiant\APP6\APP6.sdk\standalone_bsp_0\microblaze_0\lib\libc.a(lib_a-strlen.o)
 .data          0x00000000        0x0 C:\ZYBO\Work-2018.2\APP6-GE\S4e-APP6-Vivado_Etudiant\APP6\APP6.sdk\standalone_bsp_0\microblaze_0\lib\libc.a(lib_a-strncpy.o)
 .bss           0x00000000        0x0 C:\ZYBO\Work-2018.2\APP6-GE\S4e-APP6-Vivado_Etudiant\APP6\APP6.sdk\standalone_bsp_0\microblaze_0\lib\libc.a(lib_a-strncpy.o)
 .data          0x00000000        0x0 C:\ZYBO\Work-2018.2\APP6-GE\S4e-APP6-Vivado_Etudiant\APP6\APP6.sdk\standalone_bsp_0\microblaze_0\lib\libc.a(lib_a-svfprintf.o)
 .bss           0x00000000        0x0 C:\ZYBO\Work-2018.2\APP6-GE\S4e-APP6-Vivado_Etudiant\APP6\APP6.sdk\standalone_bsp_0\microblaze_0\lib\libc.a(lib_a-svfprintf.o)
 .data          0x00000000        0x0 C:\ZYBO\Work-2018.2\APP6-GE\S4e-APP6-Vivado_Etudiant\APP6\APP6.sdk\standalone_bsp_0\microblaze_0\lib\libc.a(lib_a-__call_atexit.o)
 .bss           0x00000000        0x4 C:\ZYBO\Work-2018.2\APP6-GE\S4e-APP6-Vivado_Etudiant\APP6\APP6.sdk\standalone_bsp_0\microblaze_0\lib\libc.a(lib_a-__call_atexit.o)
 .data          0x00000000        0x0 C:\ZYBO\Work-2018.2\APP6-GE\S4e-APP6-Vivado_Etudiant\APP6\APP6.sdk\standalone_bsp_0\microblaze_0\lib\libc.a(lib_a-dtoa.o)
 .bss           0x00000000        0x0 C:\ZYBO\Work-2018.2\APP6-GE\S4e-APP6-Vivado_Etudiant\APP6\APP6.sdk\standalone_bsp_0\microblaze_0\lib\libc.a(lib_a-dtoa.o)
 .data          0x00000000        0x0 C:\ZYBO\Work-2018.2\APP6-GE\S4e-APP6-Vivado_Etudiant\APP6\APP6.sdk\standalone_bsp_0\microblaze_0\lib\libc.a(lib_a-freer.o)
 .bss           0x00000000        0x0 C:\ZYBO\Work-2018.2\APP6-GE\S4e-APP6-Vivado_Etudiant\APP6\APP6.sdk\standalone_bsp_0\microblaze_0\lib\libc.a(lib_a-freer.o)
 .data          0x00000000        0x0 C:\ZYBO\Work-2018.2\APP6-GE\S4e-APP6-Vivado_Etudiant\APP6\APP6.sdk\standalone_bsp_0\microblaze_0\lib\libc.a(lib_a-memchr.o)
 .bss           0x00000000        0x0 C:\ZYBO\Work-2018.2\APP6-GE\S4e-APP6-Vivado_Etudiant\APP6\APP6.sdk\standalone_bsp_0\microblaze_0\lib\libc.a(lib_a-memchr.o)
 .data          0x00000000        0x0 C:\ZYBO\Work-2018.2\APP6-GE\S4e-APP6-Vivado_Etudiant\APP6\APP6.sdk\standalone_bsp_0\microblaze_0\lib\libc.a(lib_a-mprec.o)
 .bss           0x00000000        0x0 C:\ZYBO\Work-2018.2\APP6-GE\S4e-APP6-Vivado_Etudiant\APP6\APP6.sdk\standalone_bsp_0\microblaze_0\lib\libc.a(lib_a-mprec.o)
 .text          0x00000000      0x354 C:\ZYBO\Work-2018.2\APP6-GE\S4e-APP6-Vivado_Etudiant\APP6\APP6.sdk\standalone_bsp_0\microblaze_0\lib\libc.a(lib_a-reent.o)
 .data          0x00000000        0x0 C:\ZYBO\Work-2018.2\APP6-GE\S4e-APP6-Vivado_Etudiant\APP6\APP6.sdk\standalone_bsp_0\microblaze_0\lib\libc.a(lib_a-reent.o)
 .bss           0x00000000        0x0 C:\ZYBO\Work-2018.2\APP6-GE\S4e-APP6-Vivado_Etudiant\APP6\APP6.sdk\standalone_bsp_0\microblaze_0\lib\libc.a(lib_a-reent.o)
 .data          0x00000000        0x0 C:\ZYBO\Work-2018.2\APP6-GE\S4e-APP6-Vivado_Etudiant\APP6\APP6.sdk\standalone_bsp_0\microblaze_0\lib\libc.a(lib_a-s_frexp.o)
 .bss           0x00000000        0x0 C:\ZYBO\Work-2018.2\APP6-GE\S4e-APP6-Vivado_Etudiant\APP6\APP6.sdk\standalone_bsp_0\microblaze_0\lib\libc.a(lib_a-s_frexp.o)
 .rodata        0x00000000        0x8 C:\ZYBO\Work-2018.2\APP6-GE\S4e-APP6-Vivado_Etudiant\APP6\APP6.sdk\standalone_bsp_0\microblaze_0\lib\libc.a(lib_a-s_frexp.o)
 .data          0x00000000        0x0 C:\ZYBO\Work-2018.2\APP6-GE\S4e-APP6-Vivado_Etudiant\APP6\APP6.sdk\standalone_bsp_0\microblaze_0\lib\libc.a(lib_a-strcmp.o)
 .bss           0x00000000        0x0 C:\ZYBO\Work-2018.2\APP6-GE\S4e-APP6-Vivado_Etudiant\APP6\APP6.sdk\standalone_bsp_0\microblaze_0\lib\libc.a(lib_a-strcmp.o)
 .data          0x00000000        0x0 C:\ZYBO\Work-2018.2\APP6-GE\S4e-APP6-Vivado_Etudiant\APP6\APP6.sdk\standalone_bsp_0\microblaze_0\lib\libc.a(lib_a-svfiprintf.o)
 .bss           0x00000000        0x0 C:\ZYBO\Work-2018.2\APP6-GE\S4e-APP6-Vivado_Etudiant\APP6\APP6.sdk\standalone_bsp_0\microblaze_0\lib\libc.a(lib_a-svfiprintf.o)
 .data          0x00000000        0x0 C:\ZYBO\Work-2018.2\APP6-GE\S4e-APP6-Vivado_Etudiant\APP6\APP6.sdk\standalone_bsp_0\microblaze_0\lib\libc.a(lib_a-callocr.o)
 .bss           0x00000000        0x0 C:\ZYBO\Work-2018.2\APP6-GE\S4e-APP6-Vivado_Etudiant\APP6\APP6.sdk\standalone_bsp_0\microblaze_0\lib\libc.a(lib_a-callocr.o)
 .data          0x00000000        0x0 C:\ZYBO\Work-2018.2\APP6-GE\S4e-APP6-Vivado_Etudiant\APP6\APP6.sdk\standalone_bsp_0\microblaze_0\lib\libc.a(lib_a-memmove.o)
 .bss           0x00000000        0x0 C:\ZYBO\Work-2018.2\APP6-GE\S4e-APP6-Vivado_Etudiant\APP6\APP6.sdk\standalone_bsp_0\microblaze_0\lib\libc.a(lib_a-memmove.o)
 .data          0x00000000        0x0 C:\ZYBO\Work-2018.2\APP6-GE\S4e-APP6-Vivado_Etudiant\APP6\APP6.sdk\standalone_bsp_0\microblaze_0\lib\libc.a(lib_a-reallocr.o)
 .bss           0x00000000        0x0 C:\ZYBO\Work-2018.2\APP6-GE\S4e-APP6-Vivado_Etudiant\APP6\APP6.sdk\standalone_bsp_0\microblaze_0\lib\libc.a(lib_a-reallocr.o)
 .data          0x00000000        0x0 C:\ZYBO\Work-2018.2\APP6-GE\S4e-APP6-Vivado_Etudiant\APP6\APP6.sdk\standalone_bsp_0\microblaze_0\lib\libgcc.a(_udivdi3.o)
 .bss           0x00000000        0x0 C:\ZYBO\Work-2018.2\APP6-GE\S4e-APP6-Vivado_Etudiant\APP6\APP6.sdk\standalone_bsp_0\microblaze_0\lib\libgcc.a(_udivdi3.o)
 .eh_frame      0x00000000       0x44 C:\ZYBO\Work-2018.2\APP6-GE\S4e-APP6-Vivado_Etudiant\APP6\APP6.sdk\standalone_bsp_0\microblaze_0\lib\libgcc.a(_udivdi3.o)
 .data          0x00000000        0x0 C:\ZYBO\Work-2018.2\APP6-GE\S4e-APP6-Vivado_Etudiant\APP6\APP6.sdk\standalone_bsp_0\microblaze_0\lib\libgcc.a(_umoddi3.o)
 .bss           0x00000000        0x0 C:\ZYBO\Work-2018.2\APP6-GE\S4e-APP6-Vivado_Etudiant\APP6\APP6.sdk\standalone_bsp_0\microblaze_0\lib\libgcc.a(_umoddi3.o)
 .eh_frame      0x00000000       0x44 C:\ZYBO\Work-2018.2\APP6-GE\S4e-APP6-Vivado_Etudiant\APP6\APP6.sdk\standalone_bsp_0\microblaze_0\lib\libgcc.a(_umoddi3.o)
 .data          0x00000000        0x0 C:\ZYBO\Work-2018.2\APP6-GE\S4e-APP6-Vivado_Etudiant\APP6\APP6.sdk\standalone_bsp_0\microblaze_0\lib\libgcc.a(_addsub_df.o)
 .bss           0x00000000        0x0 C:\ZYBO\Work-2018.2\APP6-GE\S4e-APP6-Vivado_Etudiant\APP6\APP6.sdk\standalone_bsp_0\microblaze_0\lib\libgcc.a(_addsub_df.o)
 .data          0x00000000        0x0 C:\ZYBO\Work-2018.2\APP6-GE\S4e-APP6-Vivado_Etudiant\APP6\APP6.sdk\standalone_bsp_0\microblaze_0\lib\libgcc.a(_mul_df.o)
 .bss           0x00000000        0x0 C:\ZYBO\Work-2018.2\APP6-GE\S4e-APP6-Vivado_Etudiant\APP6\APP6.sdk\standalone_bsp_0\microblaze_0\lib\libgcc.a(_mul_df.o)
 .data          0x00000000        0x0 C:\ZYBO\Work-2018.2\APP6-GE\S4e-APP6-Vivado_Etudiant\APP6\APP6.sdk\standalone_bsp_0\microblaze_0\lib\libgcc.a(_div_df.o)
 .bss           0x00000000        0x0 C:\ZYBO\Work-2018.2\APP6-GE\S4e-APP6-Vivado_Etudiant\APP6\APP6.sdk\standalone_bsp_0\microblaze_0\lib\libgcc.a(_div_df.o)
 .data          0x00000000        0x0 C:\ZYBO\Work-2018.2\APP6-GE\S4e-APP6-Vivado_Etudiant\APP6\APP6.sdk\standalone_bsp_0\microblaze_0\lib\libgcc.a(_eq_df.o)
 .bss           0x00000000        0x0 C:\ZYBO\Work-2018.2\APP6-GE\S4e-APP6-Vivado_Etudiant\APP6\APP6.sdk\standalone_bsp_0\microblaze_0\lib\libgcc.a(_eq_df.o)
 .data          0x00000000        0x0 C:\ZYBO\Work-2018.2\APP6-GE\S4e-APP6-Vivado_Etudiant\APP6\APP6.sdk\standalone_bsp_0\microblaze_0\lib\libgcc.a(_ne_df.o)
 .bss           0x00000000        0x0 C:\ZYBO\Work-2018.2\APP6-GE\S4e-APP6-Vivado_Etudiant\APP6\APP6.sdk\standalone_bsp_0\microblaze_0\lib\libgcc.a(_ne_df.o)
 .data          0x00000000        0x0 C:\ZYBO\Work-2018.2\APP6-GE\S4e-APP6-Vivado_Etudiant\APP6\APP6.sdk\standalone_bsp_0\microblaze_0\lib\libgcc.a(_gt_df.o)
 .bss           0x00000000        0x0 C:\ZYBO\Work-2018.2\APP6-GE\S4e-APP6-Vivado_Etudiant\APP6\APP6.sdk\standalone_bsp_0\microblaze_0\lib\libgcc.a(_gt_df.o)
 .data          0x00000000        0x0 C:\ZYBO\Work-2018.2\APP6-GE\S4e-APP6-Vivado_Etudiant\APP6\APP6.sdk\standalone_bsp_0\microblaze_0\lib\libgcc.a(_lt_df.o)
 .bss           0x00000000        0x0 C:\ZYBO\Work-2018.2\APP6-GE\S4e-APP6-Vivado_Etudiant\APP6\APP6.sdk\standalone_bsp_0\microblaze_0\lib\libgcc.a(_lt_df.o)
 .data          0x00000000        0x0 C:\ZYBO\Work-2018.2\APP6-GE\S4e-APP6-Vivado_Etudiant\APP6\APP6.sdk\standalone_bsp_0\microblaze_0\lib\libgcc.a(_le_df.o)
 .bss           0x00000000        0x0 C:\ZYBO\Work-2018.2\APP6-GE\S4e-APP6-Vivado_Etudiant\APP6\APP6.sdk\standalone_bsp_0\microblaze_0\lib\libgcc.a(_le_df.o)
 .data          0x00000000        0x0 C:\ZYBO\Work-2018.2\APP6-GE\S4e-APP6-Vivado_Etudiant\APP6\APP6.sdk\standalone_bsp_0\microblaze_0\lib\libgcc.a(_unord_df.o)
 .bss           0x00000000        0x0 C:\ZYBO\Work-2018.2\APP6-GE\S4e-APP6-Vivado_Etudiant\APP6\APP6.sdk\standalone_bsp_0\microblaze_0\lib\libgcc.a(_unord_df.o)
 .data          0x00000000        0x0 C:\ZYBO\Work-2018.2\APP6-GE\S4e-APP6-Vivado_Etudiant\APP6\APP6.sdk\standalone_bsp_0\microblaze_0\lib\libgcc.a(_si_to_df.o)
 .bss           0x00000000        0x0 C:\ZYBO\Work-2018.2\APP6-GE\S4e-APP6-Vivado_Etudiant\APP6\APP6.sdk\standalone_bsp_0\microblaze_0\lib\libgcc.a(_si_to_df.o)
 .data          0x00000000        0x0 C:\ZYBO\Work-2018.2\APP6-GE\S4e-APP6-Vivado_Etudiant\APP6\APP6.sdk\standalone_bsp_0\microblaze_0\lib\libgcc.a(_df_to_si.o)
 .bss           0x00000000        0x0 C:\ZYBO\Work-2018.2\APP6-GE\S4e-APP6-Vivado_Etudiant\APP6\APP6.sdk\standalone_bsp_0\microblaze_0\lib\libgcc.a(_df_to_si.o)
 .text          0x00000000        0x0 C:\ZYBO\Work-2018.2\APP6-GE\S4e-APP6-Vivado_Etudiant\APP6\APP6.sdk\standalone_bsp_0\microblaze_0\lib\libgcc.a(_thenan_df.o)
 .data          0x00000000        0x0 C:\ZYBO\Work-2018.2\APP6-GE\S4e-APP6-Vivado_Etudiant\APP6\APP6.sdk\standalone_bsp_0\microblaze_0\lib\libgcc.a(_thenan_df.o)
 .bss           0x00000000        0x0 C:\ZYBO\Work-2018.2\APP6-GE\S4e-APP6-Vivado_Etudiant\APP6\APP6.sdk\standalone_bsp_0\microblaze_0\lib\libgcc.a(_thenan_df.o)
 .data          0x00000000        0x0 C:\ZYBO\Work-2018.2\APP6-GE\S4e-APP6-Vivado_Etudiant\APP6\APP6.sdk\standalone_bsp_0\microblaze_0\lib\libgcc.a(_usi_to_df.o)
 .bss           0x00000000        0x0 C:\ZYBO\Work-2018.2\APP6-GE\S4e-APP6-Vivado_Etudiant\APP6\APP6.sdk\standalone_bsp_0\microblaze_0\lib\libgcc.a(_usi_to_df.o)
 .data          0x00000000        0x0 C:\ZYBO\Work-2018.2\APP6-GE\S4e-APP6-Vivado_Etudiant\APP6\APP6.sdk\standalone_bsp_0\microblaze_0\lib\libgcc.a(divsi3.o)
 .bss           0x00000000        0x0 C:\ZYBO\Work-2018.2\APP6-GE\S4e-APP6-Vivado_Etudiant\APP6\APP6.sdk\standalone_bsp_0\microblaze_0\lib\libgcc.a(divsi3.o)
 .data          0x00000000        0x0 C:\ZYBO\Work-2018.2\APP6-GE\S4e-APP6-Vivado_Etudiant\APP6\APP6.sdk\standalone_bsp_0\microblaze_0\lib\libgcc.a(modsi3.o)
 .bss           0x00000000        0x0 C:\ZYBO\Work-2018.2\APP6-GE\S4e-APP6-Vivado_Etudiant\APP6\APP6.sdk\standalone_bsp_0\microblaze_0\lib\libgcc.a(modsi3.o)
 .data          0x00000000        0x0 C:\ZYBO\Work-2018.2\APP6-GE\S4e-APP6-Vivado_Etudiant\APP6\APP6.sdk\standalone_bsp_0\microblaze_0\lib\libgcc.a(udivsi3.o)
 .bss           0x00000000        0x0 C:\ZYBO\Work-2018.2\APP6-GE\S4e-APP6-Vivado_Etudiant\APP6\APP6.sdk\standalone_bsp_0\microblaze_0\lib\libgcc.a(udivsi3.o)
 .data          0x00000000        0x0 C:\ZYBO\Work-2018.2\APP6-GE\S4e-APP6-Vivado_Etudiant\APP6\APP6.sdk\standalone_bsp_0\microblaze_0\lib\libgcc.a(umodsi3.o)
 .bss           0x00000000        0x0 C:\ZYBO\Work-2018.2\APP6-GE\S4e-APP6-Vivado_Etudiant\APP6\APP6.sdk\standalone_bsp_0\microblaze_0\lib\libgcc.a(umodsi3.o)
 .data          0x00000000        0x0 C:\ZYBO\Work-2018.2\APP6-GE\S4e-APP6-Vivado_Etudiant\APP6\APP6.sdk\standalone_bsp_0\microblaze_0\lib\libgcc.a(_muldi3.o)
 .bss           0x00000000        0x0 C:\ZYBO\Work-2018.2\APP6-GE\S4e-APP6-Vivado_Etudiant\APP6\APP6.sdk\standalone_bsp_0\microblaze_0\lib\libgcc.a(_muldi3.o)
 .text          0x00000000        0x0 C:\ZYBO\Work-2018.2\APP6-GE\S4e-APP6-Vivado_Etudiant\APP6\APP6.sdk\standalone_bsp_0\microblaze_0\lib\libgcc.a(_clz.o)
 .data          0x00000000        0x0 C:\ZYBO\Work-2018.2\APP6-GE\S4e-APP6-Vivado_Etudiant\APP6\APP6.sdk\standalone_bsp_0\microblaze_0\lib\libgcc.a(_clz.o)
 .bss           0x00000000        0x0 C:\ZYBO\Work-2018.2\APP6-GE\S4e-APP6-Vivado_Etudiant\APP6\APP6.sdk\standalone_bsp_0\microblaze_0\lib\libgcc.a(_clz.o)
 .data          0x00000000        0x0 C:\ZYBO\Work-2018.2\APP6-GE\S4e-APP6-Vivado_Etudiant\APP6\APP6.sdk\standalone_bsp_0\microblaze_0\lib\libgcc.a(_clzsi2.o)
 .bss           0x00000000        0x0 C:\ZYBO\Work-2018.2\APP6-GE\S4e-APP6-Vivado_Etudiant\APP6\APP6.sdk\standalone_bsp_0\microblaze_0\lib\libgcc.a(_clzsi2.o)
 .data          0x00000000        0x0 C:\ZYBO\Work-2018.2\APP6-GE\S4e-APP6-Vivado_Etudiant\APP6\APP6.sdk\standalone_bsp_0\microblaze_0\lib\libgcc.a(_pack_df.o)
 .bss           0x00000000        0x0 C:\ZYBO\Work-2018.2\APP6-GE\S4e-APP6-Vivado_Etudiant\APP6\APP6.sdk\standalone_bsp_0\microblaze_0\lib\libgcc.a(_pack_df.o)
 .data          0x00000000        0x0 C:\ZYBO\Work-2018.2\APP6-GE\S4e-APP6-Vivado_Etudiant\APP6\APP6.sdk\standalone_bsp_0\microblaze_0\lib\libgcc.a(_unpack_df.o)
 .bss           0x00000000        0x0 C:\ZYBO\Work-2018.2\APP6-GE\S4e-APP6-Vivado_Etudiant\APP6\APP6.sdk\standalone_bsp_0\microblaze_0\lib\libgcc.a(_unpack_df.o)
 .data          0x00000000        0x0 C:\ZYBO\Work-2018.2\APP6-GE\S4e-APP6-Vivado_Etudiant\APP6\APP6.sdk\standalone_bsp_0\microblaze_0\lib\libgcc.a(_fpcmp_parts_df.o)
 .bss           0x00000000        0x0 C:\ZYBO\Work-2018.2\APP6-GE\S4e-APP6-Vivado_Etudiant\APP6\APP6.sdk\standalone_bsp_0\microblaze_0\lib\libgcc.a(_fpcmp_parts_df.o)
 .data          0x00000000        0x0 C:\ZYBO\Work-2018.2\APP6-GE\S4e-APP6-Vivado_Etudiant\APP6\APP6.sdk\standalone_bsp_0\microblaze_0\lib\libgloss.a(sbrk.o)
 .text          0x00000000        0x0 C:\ZYBO\Work-2018.2\APP6-GE\S4e-APP6-Vivado_Etudiant\APP6\APP6.sdk\standalone_bsp_0\microblaze_0\lib\libxil.a(errno.o)
 .data          0x00000000        0x0 C:\ZYBO\Work-2018.2\APP6-GE\S4e-APP6-Vivado_Etudiant\APP6\APP6.sdk\standalone_bsp_0\microblaze_0\lib\libxil.a(errno.o)
 .bss           0x00000000        0x0 C:\ZYBO\Work-2018.2\APP6-GE\S4e-APP6-Vivado_Etudiant\APP6\APP6.sdk\standalone_bsp_0\microblaze_0\lib\libxil.a(errno.o)
 .data          0x00000000        0x4 d:/xilinx/sdk/2018.2/gnu/microblaze/nt/bin/../lib/gcc/microblaze-xilinx-elf/7.2.0/m/le/crtend.o
 .bss           0x00000000        0x0 d:/xilinx/sdk/2018.2/gnu/microblaze/nt/bin/../lib/gcc/microblaze-xilinx-elf/7.2.0/m/le/crtend.o
 .eh_frame      0x00000000        0x4 d:/xilinx/sdk/2018.2/gnu/microblaze/nt/bin/../lib/gcc/microblaze-xilinx-elf/7.2.0/m/le/crtend.o
 .text          0x00000000        0x0 d:/xilinx/sdk/2018.2/gnu/microblaze/nt/bin/../lib/gcc/microblaze-xilinx-elf/7.2.0/m/le/crtn.o
 .data          0x00000000        0x0 d:/xilinx/sdk/2018.2/gnu/microblaze/nt/bin/../lib/gcc/microblaze-xilinx-elf/7.2.0/m/le/crtn.o
 .bss           0x00000000        0x0 d:/xilinx/sdk/2018.2/gnu/microblaze/nt/bin/../lib/gcc/microblaze-xilinx-elf/7.2.0/m/le/crtn.o

Memory Configuration

Name             Origin             Length             Attributes
microblaze_0_local_memory_ilmb_bram_if_cntlr_Mem_microblaze_0_local_memory_dlmb_bram_if_cntlr_Mem 0x00000050         0x0001ffb0
*default*        0x00000000         0xffffffff

Linker script and memory map

LOAD d:/xilinx/sdk/2018.2/gnu/microblaze/nt/bin/../lib/gcc/microblaze-xilinx-elf/7.2.0/../../../../microblaze-xilinx-elf/lib/m/le/crt0.o
LOAD d:/xilinx/sdk/2018.2/gnu/microblaze/nt/bin/../lib/gcc/microblaze-xilinx-elf/7.2.0/m/le/crti.o
LOAD d:/xilinx/sdk/2018.2/gnu/microblaze/nt/bin/../lib/gcc/microblaze-xilinx-elf/7.2.0/m/le/crtbegin.o
LOAD d:/xilinx/sdk/2018.2/gnu/microblaze/nt/bin/../lib/gcc/microblaze-xilinx-elf/7.2.0/../../../../microblaze-xilinx-elf/lib/m/le/crtinit.o
                0x00000800                _STACK_SIZE = DEFINED (_STACK_SIZE)?_STACK_SIZE:0x800
                0x00002000                _HEAP_SIZE = DEFINED (_HEAP_SIZE)?_HEAP_SIZE:0x2000

.vectors.reset  0x00000000        0x8
 *(.vectors.reset)
 .vectors.reset
                0x00000000        0x8 d:/xilinx/sdk/2018.2/gnu/microblaze/nt/bin/../lib/gcc/microblaze-xilinx-elf/7.2.0/../../../../microblaze-xilinx-elf/lib/m/le/crt0.o
                0x00000000                _start

.vectors.sw_exception
                0x00000008        0x8
 *(.vectors.sw_exception)
 .vectors.sw_exception
                0x00000008        0x8 d:/xilinx/sdk/2018.2/gnu/microblaze/nt/bin/../lib/gcc/microblaze-xilinx-elf/7.2.0/../../../../microblaze-xilinx-elf/lib/m/le/crt0.o

.vectors.interrupt
                0x00000010        0x8
 *(.vectors.interrupt)
 .vectors.interrupt
                0x00000010        0x8 d:/xilinx/sdk/2018.2/gnu/microblaze/nt/bin/../lib/gcc/microblaze-xilinx-elf/7.2.0/../../../../microblaze-xilinx-elf/lib/m/le/crt0.o

.vectors.hw_exception
                0x00000020        0x8
 *(.vectors.hw_exception)
 .vectors.hw_exception
                0x00000020        0x8 d:/xilinx/sdk/2018.2/gnu/microblaze/nt/bin/../lib/gcc/microblaze-xilinx-elf/7.2.0/../../../../microblaze-xilinx-elf/lib/m/le/crt0.o

.text           0x00000050    0x1ab5c
 *(.text)
 .text          0x00000050       0x34 d:/xilinx/sdk/2018.2/gnu/microblaze/nt/bin/../lib/gcc/microblaze-xilinx-elf/7.2.0/../../../../microblaze-xilinx-elf/lib/m/le/crt0.o
                0x00000050                _start1
                0x00000080                _exit
 .text          0x00000084      0x244 d:/xilinx/sdk/2018.2/gnu/microblaze/nt/bin/../lib/gcc/microblaze-xilinx-elf/7.2.0/m/le/crtbegin.o
 .text          0x000002c8       0xb0 d:/xilinx/sdk/2018.2/gnu/microblaze/nt/bin/../lib/gcc/microblaze-xilinx-elf/7.2.0/../../../../microblaze-xilinx-elf/lib/m/le/crtinit.o
                0x000002c8                _crtinit
 .text          0x00000378       0x48 C:\ZYBO\Work-2018.2\APP6-GE\S4e-APP6-Vivado_Etudiant\APP6\APP6.sdk\standalone_bsp_0\microblaze_0\lib\libgloss.a(print.o)
                0x00000378                print
 .text          0x000003c0        0x4 C:\ZYBO\Work-2018.2\APP6-GE\S4e-APP6-Vivado_Etudiant\APP6\APP6.sdk\standalone_bsp_0\microblaze_0\lib\libgloss.a(_exception_handler.o)
                0x000003c0                _exception_handler
 .text          0x000003c4        0x8 C:\ZYBO\Work-2018.2\APP6-GE\S4e-APP6-Vivado_Etudiant\APP6\APP6.sdk\standalone_bsp_0\microblaze_0\lib\libgloss.a(_program_clean.o)
                0x000003c4                _program_clean
 .text          0x000003cc        0x8 C:\ZYBO\Work-2018.2\APP6-GE\S4e-APP6-Vivado_Etudiant\APP6\APP6.sdk\standalone_bsp_0\microblaze_0\lib\libgloss.a(_program_init.o)
                0x000003cc                _program_init
 .text          0x000003d4      0x114 C:\ZYBO\Work-2018.2\APP6-GE\S4e-APP6-Vivado_Etudiant\APP6\APP6.sdk\standalone_bsp_0\microblaze_0\lib\libxil.a(hw_exception_handler.o)
                0x000003d4                _hw_exception_handler
 .text          0x000004e8       0x14 C:\ZYBO\Work-2018.2\APP6-GE\S4e-APP6-Vivado_Etudiant\APP6\APP6.sdk\standalone_bsp_0\microblaze_0\lib\libxil.a(microblaze_enable_exceptions.o)
                0x000004e8                microblaze_enable_exceptions
 .text          0x000004fc       0x14 C:\ZYBO\Work-2018.2\APP6-GE\S4e-APP6-Vivado_Etudiant\APP6\APP6.sdk\standalone_bsp_0\microblaze_0\lib\libxil.a(microblaze_enable_interrupts.o)
                0x000004fc                microblaze_enable_interrupts
 .text          0x00000510       0x68 C:\ZYBO\Work-2018.2\APP6-GE\S4e-APP6-Vivado_Etudiant\APP6\APP6.sdk\standalone_bsp_0\microblaze_0\lib\libc.a(lib_a-exit.o)
                0x00000510                exit
 .text          0x00000578       0xe0 C:\ZYBO\Work-2018.2\APP6-GE\S4e-APP6-Vivado_Etudiant\APP6\APP6.sdk\standalone_bsp_0\microblaze_0\lib\libc.a(lib_a-isupper.o)
                0x00000578                isupper
 .text          0x00000658       0x48 C:\ZYBO\Work-2018.2\APP6-GE\S4e-APP6-Vivado_Etudiant\APP6\APP6.sdk\standalone_bsp_0\microblaze_0\lib\libc.a(lib_a-isxdigit.o)
                0x00000658                isxdigit
 .text          0x000006a0       0x94 C:\ZYBO\Work-2018.2\APP6-GE\S4e-APP6-Vivado_Etudiant\APP6\APP6.sdk\standalone_bsp_0\microblaze_0\lib\libc.a(lib_a-malloc.o)
                0x000006a0                malloc
                0x000006e8                free
 .text          0x00000734     0x1578 C:\ZYBO\Work-2018.2\APP6-GE\S4e-APP6-Vivado_Etudiant\APP6\APP6.sdk\standalone_bsp_0\microblaze_0\lib\libc.a(lib_a-mallocr.o)
                0x00000b0c                _malloc_r
 .text          0x00001cac      0x13c C:\ZYBO\Work-2018.2\APP6-GE\S4e-APP6-Vivado_Etudiant\APP6\APP6.sdk\standalone_bsp_0\microblaze_0\lib\libc.a(lib_a-memcmp.o)
                0x00001cac                memcmp
 .text          0x00001de8      0x19c C:\ZYBO\Work-2018.2\APP6-GE\S4e-APP6-Vivado_Etudiant\APP6\APP6.sdk\standalone_bsp_0\microblaze_0\lib\libc.a(lib_a-memcpy.o)
                0x00001de8                memcpy
 .text          0x00001f84      0x1fc C:\ZYBO\Work-2018.2\APP6-GE\S4e-APP6-Vivado_Etudiant\APP6\APP6.sdk\standalone_bsp_0\microblaze_0\lib\libc.a(lib_a-memset.o)
                0x00001f84                memset
 .text          0x00002180       0x50 C:\ZYBO\Work-2018.2\APP6-GE\S4e-APP6-Vivado_Etudiant\APP6\APP6.sdk\standalone_bsp_0\microblaze_0\lib\libc.a(lib_a-mlock.o)
                0x00002180                __malloc_lock
                0x000021a8                __malloc_unlock
 .text          0x000021d0       0x78 C:\ZYBO\Work-2018.2\APP6-GE\S4e-APP6-Vivado_Etudiant\APP6\APP6.sdk\standalone_bsp_0\microblaze_0\lib\libc.a(lib_a-sbrkr.o)
                0x000021d0                _sbrk_r
 .text          0x00002248      0x170 C:\ZYBO\Work-2018.2\APP6-GE\S4e-APP6-Vivado_Etudiant\APP6\APP6.sdk\standalone_bsp_0\microblaze_0\lib\libc.a(lib_a-sprintf.o)
                0x00002248                _sprintf_r
                0x000022fc                sprintf
 .text          0x000023b8       0xb0 C:\ZYBO\Work-2018.2\APP6-GE\S4e-APP6-Vivado_Etudiant\APP6\APP6.sdk\standalone_bsp_0\microblaze_0\lib\libc.a(lib_a-strlen.o)
                0x000023b8                strlen
 .text          0x00002468      0x164 C:\ZYBO\Work-2018.2\APP6-GE\S4e-APP6-Vivado_Etudiant\APP6\APP6.sdk\standalone_bsp_0\microblaze_0\lib\libc.a(lib_a-strncpy.o)
                0x00002468                strncpy
 .text          0x000025cc     0x2fbc C:\ZYBO\Work-2018.2\APP6-GE\S4e-APP6-Vivado_Etudiant\APP6\APP6.sdk\standalone_bsp_0\microblaze_0\lib\libc.a(lib_a-svfprintf.o)
                0x000025cc                _svfprintf_r
 .text          0x00005588      0x23c C:\ZYBO\Work-2018.2\APP6-GE\S4e-APP6-Vivado_Etudiant\APP6\APP6.sdk\standalone_bsp_0\microblaze_0\lib\libc.a(lib_a-__call_atexit.o)
                0x00005588                __call_exitprocs
 .text          0x000057c4     0x26dc C:\ZYBO\Work-2018.2\APP6-GE\S4e-APP6-Vivado_Etudiant\APP6\APP6.sdk\standalone_bsp_0\microblaze_0\lib\libc.a(lib_a-dtoa.o)
                0x00005ec0                _dtoa_r
 .text          0x00007ea0      0xad8 C:\ZYBO\Work-2018.2\APP6-GE\S4e-APP6-Vivado_Etudiant\APP6\APP6.sdk\standalone_bsp_0\microblaze_0\lib\libc.a(lib_a-freer.o)
                0x00007ea0                _free_r
                0x00008764                _malloc_trim_r
 .text          0x00008978      0x1f4 C:\ZYBO\Work-2018.2\APP6-GE\S4e-APP6-Vivado_Etudiant\APP6\APP6.sdk\standalone_bsp_0\microblaze_0\lib\libc.a(lib_a-locale.o)
                0x00008978                _setlocale_r
                0x00008a18                __locale_charset
                0x00008a40                __locale_mb_cur_max
                0x00008a68                __locale_msgcharset
                0x00008a90                __locale_cjk_lang
                0x00008ab8                _localeconv_r
                0x00008ae4                setlocale
                0x00008b30                localeconv
 .text          0x00008b6c      0x1e0 C:\ZYBO\Work-2018.2\APP6-GE\S4e-APP6-Vivado_Etudiant\APP6\APP6.sdk\standalone_bsp_0\microblaze_0\lib\libc.a(lib_a-memchr.o)
                0x00008b6c                memchr
 .text          0x00008d4c     0x24cc C:\ZYBO\Work-2018.2\APP6-GE\S4e-APP6-Vivado_Etudiant\APP6\APP6.sdk\standalone_bsp_0\microblaze_0\lib\libc.a(lib_a-mprec.o)
                0x00008d4c                _Balloc
                0x00008f20                _Bfree
                0x00009014                __multadd
                0x00009288                __s2b
                0x00009430                __hi0bits
                0x000094d8                __lo0bits
                0x0000965c                __i2b
                0x000096bc                __multiply
                0x00009cf0                __pow5mult
                0x00009ef4                __lshift
                0x0000a144                __mcmp
                0x0000a258                __mdiff
                0x0000a6e8                __ulp
                0x0000a848                __b2d
                0x0000ab08                __d2b
                0x0000add0                __ratio
                0x0000aef8                _mprec_log10
                0x0000afb8                __copybits
                0x0000b09c                __any_on
 .text          0x0000b218      0x1dc C:\ZYBO\Work-2018.2\APP6-GE\S4e-APP6-Vivado_Etudiant\APP6\APP6.sdk\standalone_bsp_0\microblaze_0\lib\libc.a(lib_a-s_frexp.o)
                0x0000b218                frexp
 .text          0x0000b3f4      0x128 C:\ZYBO\Work-2018.2\APP6-GE\S4e-APP6-Vivado_Etudiant\APP6\APP6.sdk\standalone_bsp_0\microblaze_0\lib\libc.a(lib_a-strcmp.o)
                0x0000b3f4                strcmp
 .text          0x0000b51c     0x17ac C:\ZYBO\Work-2018.2\APP6-GE\S4e-APP6-Vivado_Etudiant\APP6\APP6.sdk\standalone_bsp_0\microblaze_0\lib\libc.a(lib_a-svfiprintf.o)
                0x0000b51c                __ssprint_r
                0x0000b8bc                _svfiprintf_r
 .text          0x0000ccc8      0x184 C:\ZYBO\Work-2018.2\APP6-GE\S4e-APP6-Vivado_Etudiant\APP6\APP6.sdk\standalone_bsp_0\microblaze_0\lib\libc.a(lib_a-callocr.o)
                0x0000ccc8                _calloc_r
 .text          0x0000ce4c      0x228 C:\ZYBO\Work-2018.2\APP6-GE\S4e-APP6-Vivado_Etudiant\APP6\APP6.sdk\standalone_bsp_0\microblaze_0\lib\libc.a(lib_a-memmove.o)
                0x0000ce4c                memmove
 .text          0x0000d074      0xcc0 C:\ZYBO\Work-2018.2\APP6-GE\S4e-APP6-Vivado_Etudiant\APP6\APP6.sdk\standalone_bsp_0\microblaze_0\lib\libc.a(lib_a-reallocr.o)
                0x0000d074                _realloc_r
 .text          0x0000dd34      0xda8 C:\ZYBO\Work-2018.2\APP6-GE\S4e-APP6-Vivado_Etudiant\APP6\APP6.sdk\standalone_bsp_0\microblaze_0\lib\libgcc.a(_udivdi3.o)
                0x0000dd34                __udivdi3
 .text          0x0000eadc      0xe10 C:\ZYBO\Work-2018.2\APP6-GE\S4e-APP6-Vivado_Etudiant\APP6\APP6.sdk\standalone_bsp_0\microblaze_0\lib\libgcc.a(_umoddi3.o)
                0x0000eadc                __umoddi3
 .text          0x0000f8ec      0x82c C:\ZYBO\Work-2018.2\APP6-GE\S4e-APP6-Vivado_Etudiant\APP6\APP6.sdk\standalone_bsp_0\microblaze_0\lib\libgcc.a(_addsub_df.o)
                0x0001002c                __adddf3
                0x0001009c                __subdf3
 .text          0x00010118      0x670 C:\ZYBO\Work-2018.2\APP6-GE\S4e-APP6-Vivado_Etudiant\APP6\APP6.sdk\standalone_bsp_0\microblaze_0\lib\libgcc.a(_mul_df.o)
                0x00010118                __muldf3
 .text          0x00010788      0x364 C:\ZYBO\Work-2018.2\APP6-GE\S4e-APP6-Vivado_Etudiant\APP6\APP6.sdk\standalone_bsp_0\microblaze_0\lib\libgcc.a(_div_df.o)
                0x00010788                __divdf3
 .text          0x00010aec       0x80 C:\ZYBO\Work-2018.2\APP6-GE\S4e-APP6-Vivado_Etudiant\APP6\APP6.sdk\standalone_bsp_0\microblaze_0\lib\libgcc.a(_eq_df.o)
                0x00010aec                __eqdf2
 .text          0x00010b6c       0x80 C:\ZYBO\Work-2018.2\APP6-GE\S4e-APP6-Vivado_Etudiant\APP6\APP6.sdk\standalone_bsp_0\microblaze_0\lib\libgcc.a(_ne_df.o)
                0x00010b6c                __nedf2
 .text          0x00010bec       0x90 C:\ZYBO\Work-2018.2\APP6-GE\S4e-APP6-Vivado_Etudiant\APP6\APP6.sdk\standalone_bsp_0\microblaze_0\lib\libgcc.a(_gt_df.o)
                0x00010bec                __gtdf2
 .text          0x00010c7c       0x80 C:\ZYBO\Work-2018.2\APP6-GE\S4e-APP6-Vivado_Etudiant\APP6\APP6.sdk\standalone_bsp_0\microblaze_0\lib\libgcc.a(_lt_df.o)
                0x00010c7c                __ltdf2
 .text          0x00010cfc       0x80 C:\ZYBO\Work-2018.2\APP6-GE\S4e-APP6-Vivado_Etudiant\APP6\APP6.sdk\standalone_bsp_0\microblaze_0\lib\libgcc.a(_le_df.o)
                0x00010cfc                __ledf2
 .text          0x00010d7c       0x80 C:\ZYBO\Work-2018.2\APP6-GE\S4e-APP6-Vivado_Etudiant\APP6\APP6.sdk\standalone_bsp_0\microblaze_0\lib\libgcc.a(_unord_df.o)
                0x00010d7c                __unorddf2
 .text          0x00010dfc      0x1b0 C:\ZYBO\Work-2018.2\APP6-GE\S4e-APP6-Vivado_Etudiant\APP6\APP6.sdk\standalone_bsp_0\microblaze_0\lib\libgcc.a(_si_to_df.o)
                0x00010dfc                __floatsidf
 .text          0x00010fac      0x12c C:\ZYBO\Work-2018.2\APP6-GE\S4e-APP6-Vivado_Etudiant\APP6\APP6.sdk\standalone_bsp_0\microblaze_0\lib\libgcc.a(_df_to_si.o)
                0x00010fac                __fixdfsi
 .text          0x000110d8       0xf0 C:\ZYBO\Work-2018.2\APP6-GE\S4e-APP6-Vivado_Etudiant\APP6\APP6.sdk\standalone_bsp_0\microblaze_0\lib\libgcc.a(_usi_to_df.o)
                0x000110d8                __floatunsidf
 .text          0x000111c8       0x9c C:\ZYBO\Work-2018.2\APP6-GE\S4e-APP6-Vivado_Etudiant\APP6\APP6.sdk\standalone_bsp_0\microblaze_0\lib\libgcc.a(divsi3.o)
                0x000111c8                __divsi3
 .text          0x00011264       0x9c C:\ZYBO\Work-2018.2\APP6-GE\S4e-APP6-Vivado_Etudiant\APP6\APP6.sdk\standalone_bsp_0\microblaze_0\lib\libgcc.a(modsi3.o)
                0x00011264                __modsi3
 .text          0x00011300       0xa8 C:\ZYBO\Work-2018.2\APP6-GE\S4e-APP6-Vivado_Etudiant\APP6\APP6.sdk\standalone_bsp_0\microblaze_0\lib\libgcc.a(udivsi3.o)
                0x00011300                __udivsi3
 .text          0x000113a8       0xbc C:\ZYBO\Work-2018.2\APP6-GE\S4e-APP6-Vivado_Etudiant\APP6\APP6.sdk\standalone_bsp_0\microblaze_0\lib\libgcc.a(umodsi3.o)
                0x000113a8                __umodsi3
 .text          0x00011464      0x184 C:\ZYBO\Work-2018.2\APP6-GE\S4e-APP6-Vivado_Etudiant\APP6\APP6.sdk\standalone_bsp_0\microblaze_0\lib\libgcc.a(_muldi3.o)
                0x00011464                __muldi3
 .text          0x000115e8      0x154 C:\ZYBO\Work-2018.2\APP6-GE\S4e-APP6-Vivado_Etudiant\APP6\APP6.sdk\standalone_bsp_0\microblaze_0\lib\libgcc.a(_clzsi2.o)
                0x000115e8                __clzsi2
 .text          0x0001173c      0x574 C:\ZYBO\Work-2018.2\APP6-GE\S4e-APP6-Vivado_Etudiant\APP6\APP6.sdk\standalone_bsp_0\microblaze_0\lib\libgcc.a(_pack_df.o)
                0x0001173c                __pack_d
 .text          0x00011cb0      0x380 C:\ZYBO\Work-2018.2\APP6-GE\S4e-APP6-Vivado_Etudiant\APP6\APP6.sdk\standalone_bsp_0\microblaze_0\lib\libgcc.a(_unpack_df.o)
                0x00011cb0                __unpack_d
 .text          0x00012030      0x108 C:\ZYBO\Work-2018.2\APP6-GE\S4e-APP6-Vivado_Etudiant\APP6\APP6.sdk\standalone_bsp_0\microblaze_0\lib\libgcc.a(_fpcmp_parts_df.o)
                0x00012030                __fpcmp_parts_d
 .text          0x00012138       0x68 C:\ZYBO\Work-2018.2\APP6-GE\S4e-APP6-Vivado_Etudiant\APP6\APP6.sdk\standalone_bsp_0\microblaze_0\lib\libgloss.a(sbrk.o)
                0x00012138                sbrk
 .text          0x000121a0       0x50 d:/xilinx/sdk/2018.2/gnu/microblaze/nt/bin/../lib/gcc/microblaze-xilinx-elf/7.2.0/m/le/crtend.o
 *(.text.*)
 .text.udpEchoStart
                0x000121f0       0x98 ./cyclone_tcp/std_services/echo.o
                0x000121f0                udpEchoStart
 .text.udpEchoTask
                0x00012288       0x90 ./cyclone_tcp/std_services/echo.o
                0x00012288                udpEchoTask
 .text.arpInit  0x00012318       0x2c ./cyclone_tcp/ipv4/arp.o
                0x00012318                arpInit
 .text.arpFindEntry
                0x00012344       0x44 ./cyclone_tcp/ipv4/arp.o
                0x00012344                arpFindEntry
 .text.arpSendQueuedPackets
                0x00012388       0xc4 ./cyclone_tcp/ipv4/arp.o
                0x00012388                arpSendQueuedPackets
 .text.arpFlushQueuedPackets
                0x0001244c       0x64 ./cyclone_tcp/ipv4/arp.o
                0x0001244c                arpFlushQueuedPackets
 .text.arpFlushCache
                0x000124b0       0x6c ./cyclone_tcp/ipv4/arp.o
                0x000124b0                arpFlushCache
 .text.arpCreateEntry
                0x0001251c       0xc0 ./cyclone_tcp/ipv4/arp.o
                0x0001251c                arpCreateEntry
 .text.arpEnqueuePacket
                0x000125dc      0x164 ./cyclone_tcp/ipv4/arp.o
                0x000125dc                arpEnqueuePacket
 .text.arpProcessReply
                0x00012740      0x25c ./cyclone_tcp/ipv4/arp.o
                0x00012740                arpProcessReply
 .text.arpSendRequest
                0x0001299c      0x26c ./cyclone_tcp/ipv4/arp.o
                0x0001299c                arpSendRequest
 .text.arpResolve
                0x00012c08      0x128 ./cyclone_tcp/ipv4/arp.o
                0x00012c08                arpResolve
 .text.arpTick  0x00012d30      0x1d8 ./cyclone_tcp/ipv4/arp.o
                0x00012d30                arpTick
 .text.arpSendReply
                0x00012f08      0x24c ./cyclone_tcp/ipv4/arp.o
                0x00012f08                arpSendReply
 .text.arpProcessRequest
                0x00013154      0x144 ./cyclone_tcp/ipv4/arp.o
                0x00013154                arpProcessRequest
 .text.arpProcessPacket
                0x00013298      0x1d8 ./cyclone_tcp/ipv4/arp.o
                0x00013298                arpProcessPacket
 .text.ipv4Init
                0x00013470       0x88 ./cyclone_tcp/ipv4/ipv4.o
                0x00013470                ipv4Init
 .text.ipv4SetHostAddr
                0x000134f8       0x90 ./cyclone_tcp/ipv4/ipv4.o
                0x000134f8                ipv4SetHostAddr
 .text.ipv4SetSubnetMask
                0x00013588       0x60 ./cyclone_tcp/ipv4/ipv4.o
                0x00013588                ipv4SetSubnetMask
 .text.ipv4SetDefaultGateway
                0x000135e8       0x74 ./cyclone_tcp/ipv4/ipv4.o
                0x000135e8                ipv4SetDefaultGateway
 .text.ipv4SetDnsServer
                0x0001365c       0x98 ./cyclone_tcp/ipv4/ipv4.o
                0x0001365c                ipv4SetDnsServer
 .text.ipv4LinkChangeEvent
                0x000136f4       0x40 ./cyclone_tcp/ipv4/ipv4.o
                0x000136f4                ipv4LinkChangeEvent
 .text.ipv4ProcessDatagram
                0x00013734      0x148 ./cyclone_tcp/ipv4/ipv4.o
                0x00013734                ipv4ProcessDatagram
 .text.ipv4IsBroadcastAddr
                0x0001387c       0x74 ./cyclone_tcp/ipv4/ipv4.o
                0x0001387c                ipv4IsBroadcastAddr
 .text.ipv4CheckSourceAddr
                0x000138f0       0x48 ./cyclone_tcp/ipv4/ipv4.o
                0x000138f0                ipv4CheckSourceAddr
 .text.ipv4CheckDestAddr
                0x00013938       0xa0 ./cyclone_tcp/ipv4/ipv4.o
                0x00013938                ipv4CheckDestAddr
 .text.ipv4ProcessPacket
                0x000139d8      0x1f0 ./cyclone_tcp/ipv4/ipv4.o
                0x000139d8                ipv4ProcessPacket
 .text.ipv4SelectSourceAddr
                0x00013bc8       0x78 ./cyclone_tcp/ipv4/ipv4.o
                0x00013bc8                ipv4SelectSourceAddr
 .text.ipv4MapMulticastAddrToMac
                0x00013c40       0x7c ./cyclone_tcp/ipv4/ipv4.o
                0x00013c40                ipv4MapMulticastAddrToMac
 .text.ipv4SendPacket
                0x00013cbc      0x50c ./cyclone_tcp/ipv4/ipv4.o
                0x00013cbc                ipv4SendPacket
 .text.ipv4SendDatagram
                0x000141c8       0xcc ./cyclone_tcp/ipv4/ipv4.o
                0x000141c8                ipv4SendDatagram
 .text.ipv4UpdateOutStats
                0x00014294        0x8 ./cyclone_tcp/ipv4/ipv4.o
                0x00014294                ipv4UpdateOutStats
 .text.ipv4StringToAddr
                0x0001429c       0xc0 ./cyclone_tcp/ipv4/ipv4.o
                0x0001429c                ipv4StringToAddr
 .text.enc624j600Tick
                0x0001435c        0x8 ./cyclone_tcp/drivers/eth/enc624j600_driver.o
                0x0001435c                enc624j600Tick
 .text.enc624j600EnableIrq
                0x00014364       0x24 ./cyclone_tcp/drivers/eth/enc624j600_driver.o
                0x00014364                enc624j600EnableIrq
 .text.enc624j600DisableIrq
                0x00014388       0x24 ./cyclone_tcp/drivers/eth/enc624j600_driver.o
                0x00014388                enc624j600DisableIrq
 .text.enc624j600WriteReg
                0x000143ac       0xa8 ./cyclone_tcp/drivers/eth/enc624j600_driver.o
                0x000143ac                enc624j600WriteReg
 .text.enc624j600ReadReg
                0x00014454       0xa8 ./cyclone_tcp/drivers/eth/enc624j600_driver.o
                0x00014454                enc624j600ReadReg
 .text.enc624j600UpdateMacConfig
                0x000144fc       0x74 ./cyclone_tcp/drivers/eth/enc624j600_driver.o
                0x000144fc                enc624j600UpdateMacConfig
 .text.enc624j600WritePhyReg
                0x00014570       0x6c ./cyclone_tcp/drivers/eth/enc624j600_driver.o
                0x00014570                enc624j600WritePhyReg
 .text.enc624j600ReadPhyReg
                0x000145dc       0x98 ./cyclone_tcp/drivers/eth/enc624j600_driver.o
                0x000145dc                enc624j600ReadPhyReg
 .text.enc624j600WriteBuffer
                0x00014674       0xf4 ./cyclone_tcp/drivers/eth/enc624j600_driver.o
                0x00014674                enc624j600WriteBuffer
 .text.enc624j600ReadBuffer
                0x00014768       0x94 ./cyclone_tcp/drivers/eth/enc624j600_driver.o
                0x00014768                enc624j600ReadBuffer
 .text.enc624j600SetBit
                0x000147fc       0xa8 ./cyclone_tcp/drivers/eth/enc624j600_driver.o
                0x000147fc                enc624j600SetBit
 .text.enc624j600ReceivePacket
                0x000148a4      0x14c ./cyclone_tcp/drivers/eth/enc624j600_driver.o
                0x000148a4                enc624j600ReceivePacket
 .text.enc624j600SoftReset
                0x000149f0       0xcc ./cyclone_tcp/drivers/eth/enc624j600_driver.o
                0x000149f0                enc624j600SoftReset
 .text.enc624j600Init
                0x00014abc      0x270 ./cyclone_tcp/drivers/eth/enc624j600_driver.o
                0x00014abc                enc624j600Init
 .text.enc624j600ClearBit
                0x00014d2c       0xa8 ./cyclone_tcp/drivers/eth/enc624j600_driver.o
                0x00014d2c                enc624j600ClearBit
 .text.enc624j600IrqHandler
                0x00014dd4      0x118 ./cyclone_tcp/drivers/eth/enc624j600_driver.o
                0x00014dd4                enc624j600IrqHandler
 .text.enc624j600EventHandler
                0x00014eec      0x128 ./cyclone_tcp/drivers/eth/enc624j600_driver.o
                0x00014eec                enc624j600EventHandler
 .text.enc624j600SendPacket
                0x00015014      0x134 ./cyclone_tcp/drivers/eth/enc624j600_driver.o
                0x00015014                enc624j600SendPacket
 .text.enc624j600CalcCrc
                0x00015148       0x80 ./cyclone_tcp/drivers/eth/enc624j600_driver.o
                0x00015148                enc624j600CalcCrc
 .text.enc624j600UpdateMacAddrFilter
                0x000151c8      0x134 ./cyclone_tcp/drivers/eth/enc624j600_driver.o
                0x000151c8                enc624j600UpdateMacAddrFilter
 .text.ethInit  0x000152fc       0x2c ./cyclone_tcp/core/ethernet.o
                0x000152fc                ethInit
 .text.ethPadFrame
                0x00015328       0x6c ./cyclone_tcp/core/ethernet.o
                0x00015328                ethPadFrame
 .text.ethCheckDestAddr
                0x00015394       0xd8 ./cyclone_tcp/core/ethernet.o
                0x00015394                ethCheckDestAddr
 .text.ethCalcCrc
                0x0001546c       0x4c ./cyclone_tcp/core/ethernet.o
                0x0001546c                ethCalcCrc
 .text.ethProcessFrame
                0x000154b8      0x17c ./cyclone_tcp/core/ethernet.o
                0x000154b8                ethProcessFrame
 .text.ethCalcCrcEx
                0x00015634       0xa8 ./cyclone_tcp/core/ethernet.o
                0x00015634                ethCalcCrcEx
 .text.ethSendFrame
                0x000156dc      0x1bc ./cyclone_tcp/core/ethernet.o
                0x000156dc                ethSendFrame
 .text.ethAllocBuffer
                0x00015898       0x38 ./cyclone_tcp/core/ethernet.o
                0x00015898                ethAllocBuffer
 .text.macStringToAddr
                0x000158d0      0x174 ./cyclone_tcp/core/ethernet.o
                0x000158d0                macStringToAddr
 .text.macAddrToEui64
                0x00015a44       0x4c ./cyclone_tcp/core/ethernet.o
                0x00015a44                macAddrToEui64
 .text.ipSendDatagram
                0x00015a90       0x90 ./cyclone_tcp/core/ip.o
                0x00015a90                ipSendDatagram
 .text.ipCalcChecksum
                0x00015b20      0x168 ./cyclone_tcp/core/ip.o
                0x00015b20                ipCalcChecksum
 .text.ipCalcChecksumEx
                0x00015c88      0x168 ./cyclone_tcp/core/ip.o
                0x00015c88                ipCalcChecksumEx
 .text.ipCalcUpperLayerChecksumEx
                0x00015df0       0xa4 ./cyclone_tcp/core/ip.o
                0x00015df0                ipCalcUpperLayerChecksumEx
 .text.ipAllocBuffer
                0x00015e94       0x40 ./cyclone_tcp/core/ip.o
                0x00015e94                ipAllocBuffer
 .text.netInit  0x00015ed4      0x178 ./cyclone_tcp/core/net.o
                0x00015ed4                netInit
 .text.netSetMacAddr
                0x0001604c       0xd8 ./cyclone_tcp/core/net.o
                0x0001604c                netSetMacAddr
 .text.netSetInterfaceName
                0x00016124       0xac ./cyclone_tcp/core/net.o
                0x00016124                netSetInterfaceName
 .text.netSetHostname
                0x000161d0       0xac ./cyclone_tcp/core/net.o
                0x000161d0                netSetHostname
 .text.netSetDriver
                0x0001627c       0x98 ./cyclone_tcp/core/net.o
                0x0001627c                netSetDriver
 .text.netSetSpiDriver
                0x00016314       0x98 ./cyclone_tcp/core/net.o
                0x00016314                netSetSpiDriver
 .text.netSetExtIntDriver
                0x000163ac       0x98 ./cyclone_tcp/core/net.o
                0x000163ac                netSetExtIntDriver
 .text.netConfigInterface
                0x00016444      0x128 ./cyclone_tcp/core/net.o
                0x00016444                netConfigInterface
 .text.netTaskInit
                0x0001656c       0x74 ./cyclone_tcp/core/net.o
                0x0001656c                netTaskInit
 .text.netTick  0x000165e0       0xa8 ./cyclone_tcp/core/net.o
                0x000165e0                netTick
 .text.netTask  0x00016688      0x1c0 ./cyclone_tcp/core/net.o
                0x00016688                netTask
 .text.netInitRand
                0x00016848       0x1c ./cyclone_tcp/core/net.o
                0x00016848                netInitRand
 .text.netGetRand
                0x00016864       0x90 ./cyclone_tcp/core/net.o
                0x00016864                netGetRand
 .text.netInvokeLinkChangeCallback
                0x000168f4       0xc0 ./cyclone_tcp/core/net.o
                0x000168f4                netInvokeLinkChangeCallback
 .text.memPoolInit
                0x000169b4        0x8 ./cyclone_tcp/core/net_mem.o
                0x000169b4                memPoolInit
 .text.memPoolAlloc
                0x000169bc       0x20 ./cyclone_tcp/core/net_mem.o
                0x000169bc                memPoolAlloc
 .text.memPoolFree
                0x000169dc       0x20 ./cyclone_tcp/core/net_mem.o
                0x000169dc                memPoolFree
 .text.netBufferGetLength
                0x000169fc       0x34 ./cyclone_tcp/core/net_mem.o
                0x000169fc                netBufferGetLength
 .text.netBufferSetLength
                0x00016a30      0x17c ./cyclone_tcp/core/net_mem.o
                0x00016a30                netBufferSetLength
 .text.netBufferFree
                0x00016bac       0x38 ./cyclone_tcp/core/net_mem.o
                0x00016bac                netBufferFree
 .text.netBufferAlloc
                0x00016be4       0x88 ./cyclone_tcp/core/net_mem.o
                0x00016be4                netBufferAlloc
 .text.netBufferAt
                0x00016c6c       0x48 ./cyclone_tcp/core/net_mem.o
                0x00016c6c                netBufferAt
 .text.netBufferCopy
                0x00016cb4      0x1c0 ./cyclone_tcp/core/net_mem.o
                0x00016cb4                netBufferCopy
 .text.netBufferAppend
                0x00016e74       0x40 ./cyclone_tcp/core/net_mem.o
                0x00016e74                netBufferAppend
 .text.netBufferRead
                0x00016eb4       0xd0 ./cyclone_tcp/core/net_mem.o
                0x00016eb4                netBufferRead
 .text.nicGetLogicalInterface
                0x00016f84        0x8 ./cyclone_tcp/core/nic.o
                0x00016f84                nicGetLogicalInterface
 .text.nicGetPhysicalInterface
                0x00016f8c        0x8 ./cyclone_tcp/core/nic.o
                0x00016f8c                nicGetPhysicalInterface
 .text.nicTick  0x00016f94       0x64 ./cyclone_tcp/core/nic.o
                0x00016f94                nicTick
 .text.nicSendPacket
                0x00016ff8       0xc4 ./cyclone_tcp/core/nic.o
                0x00016ff8                nicSendPacket
 .text.nicProcessPacket
                0x000170bc       0x98 ./cyclone_tcp/core/nic.o
                0x000170bc                nicProcessPacket
 .text.nicNotifyLinkChange
                0x00017154      0x104 ./cyclone_tcp/core/nic.o
                0x00017154                nicNotifyLinkChange
 .text.socketInit
                0x00017258       0xa8 ./cyclone_tcp/core/socket.o
                0x00017258                socketInit
 .text.socketOpen
                0x00017300      0x120 ./cyclone_tcp/core/socket.o
                0x00017300                socketOpen
 .text.socketBind
                0x00017420       0x74 ./cyclone_tcp/core/socket.o
                0x00017420                socketBind
 .text.socketSendTo
                0x00017494       0xe0 ./cyclone_tcp/core/socket.o
                0x00017494                socketSendTo
 .text.socketReceiveEx
                0x00017574       0xdc ./cyclone_tcp/core/socket.o
                0x00017574                socketReceiveEx
 .text.socketReceiveFrom
                0x00017650       0x34 ./cyclone_tcp/core/socket.o
                0x00017650                socketReceiveFrom
 .text.socketClose
                0x00017684       0x90 ./cyclone_tcp/core/socket.o
                0x00017684                socketClose
 .text.udpInit  0x00017714       0x58 ./cyclone_tcp/core/udp.o
                0x00017714                udpInit
 .text.udpGetDynamicPort
                0x0001776c       0x9c ./cyclone_tcp/core/udp.o
                0x0001776c                udpGetDynamicPort
 .text.udpSendDatagramEx
                0x00017808      0x204 ./cyclone_tcp/core/udp.o
                0x00017808                udpSendDatagramEx
 .text.udpAllocBuffer
                0x00017a0c       0x40 ./cyclone_tcp/core/udp.o
                0x00017a0c                udpAllocBuffer
 .text.udpSendDatagram
                0x00017a4c      0x124 ./cyclone_tcp/core/udp.o
                0x00017a4c                udpSendDatagram
 .text.udpUpdateEvents
                0x00017b70       0x9c ./cyclone_tcp/core/udp.o
                0x00017b70                udpUpdateEvents
 .text.udpReceiveDatagram
                0x00017c0c      0x16c ./cyclone_tcp/core/udp.o
                0x00017c0c                udpReceiveDatagram
 .text.udpInvokeRxCallback
                0x00017d78      0x180 ./cyclone_tcp/core/udp.o
                0x00017d78                udpInvokeRxCallback
 .text.udpProcessDatagram
                0x00017ef8      0x3b8 ./cyclone_tcp/core/udp.o
                0x00017ef8                udpProcessDatagram
 .text._Z10extIntInitv
                0x000182b0        0x8 ./cyclone_tcp/ext_int_driver.o
                0x000182b0                _Z10extIntInitv
 .text._Z15extIntEnableIrqv
                0x000182b8       0x34 ./cyclone_tcp/ext_int_driver.o
                0x000182b8                _Z15extIntEnableIrqv
 .text._Z16extIntDisableIrqv
                0x000182ec       0x30 ./cyclone_tcp/ext_int_driver.o
                0x000182ec                _Z16extIntDisableIrqv
 .text._Z15ENC_Int_HandlerPv
                0x0001831c       0x58 ./cyclone_tcp/ext_int_driver.o
                0x0001831c                _Z15ENC_Int_HandlerPv
 .text._Z21MyIP_InterruptHandlerPv
                0x00018374       0x7c ./cyclone_tcp/main.o
                0x00018374                _Z21MyIP_InterruptHandlerPv
 .text._Z10systemInitv
                0x000183f0      0x20c ./cyclone_tcp/main.o
                0x000183f0                _Z10systemInitv
 .text._Z20SetupInterruptSystemv
                0x000185fc       0xc8 ./cyclone_tcp/main.o
                0x000185fc                _Z20SetupInterruptSystemv
 .text._Z9blinkTaskv
                0x000186c4       0x74 ./cyclone_tcp/main.o
                0x000186c4                _Z9blinkTaskv
 .text._Z8uartInitv
                0x00018738       0x3c ./cyclone_tcp/main.o
                0x00018738                _Z8uartInitv
 .text._Z8uartTaskv
                0x00018774       0x54 ./cyclone_tcp/main.o
                0x00018774                _Z8uartTaskv
 .text.startup.main
                0x000187c8      0x13c ./cyclone_tcp/main.o
                0x000187c8                main
 .text._Z10spiSetModej
                0x00018904        0x8 ./cyclone_tcp/spi_driver.o
                0x00018904                _Z10spiSetModej
 .text._Z11spiAssertCsv
                0x0001890c       0x34 ./cyclone_tcp/spi_driver.o
                0x0001890c                _Z11spiAssertCsv
 .text._Z13spiDeassertCsv
                0x00018940       0x38 ./cyclone_tcp/spi_driver.o
                0x00018940                _Z13spiDeassertCsv
 .text._Z11spiTransferh
                0x00018978       0x34 ./cyclone_tcp/spi_driver.o
                0x00018978                _Z11spiTransferh
 .text._Z7spiInitv
                0x000189ac       0x58 ./cyclone_tcp/spi_driver.o
                0x000189ac                _Z7spiInitv
 .text._Z13spiSetBitratej
                0x00018a04        0x8 ./cyclone_tcp/spi_driver.o
                0x00018a04                _Z13spiSetBitratej
 .text.swapInt16
                0x00018a0c       0x18 ./common/cpu_endian.o
                0x00018a0c                swapInt16
 .text.osInitKernel
                0x00018a24       0x10 ./common/os_port_none.o
                0x00018a24                osInitKernel
 .text.osCreateTask
                0x00018a34        0x8 ./common/os_port_none.o
                0x00018a34                osCreateTask
 .text.osCreateEvent
                0x00018a3c        0xc ./common/os_port_none.o
                0x00018a3c                osCreateEvent
 .text.osDeleteEvent
                0x00018a48        0x8 ./common/os_port_none.o
                0x00018a48                osDeleteEvent
 .text.osSetEvent
                0x00018a50        0xc ./common/os_port_none.o
                0x00018a50                osSetEvent
 .text.osResetEvent
                0x00018a5c        0x8 ./common/os_port_none.o
                0x00018a5c                osResetEvent
 .text.osWaitForEvent
                0x00018a64       0x1c ./common/os_port_none.o
                0x00018a64                osWaitForEvent
 .text.osSetEventFromIsr
                0x00018a80       0x10 ./common/os_port_none.o
                0x00018a80                osSetEventFromIsr
 .text.osCreateMutex
                0x00018a90        0x8 ./common/os_port_none.o
                0x00018a90                osCreateMutex
 .text.osAcquireMutex
                0x00018a98        0x8 ./common/os_port_none.o
                0x00018a98                osAcquireMutex
 .text.osReleaseMutex
                0x00018aa0        0x8 ./common/os_port_none.o
                0x00018aa0                osReleaseMutex
 .text.osGetSystemTime
                0x00018aa8       0x10 ./common/os_port_none.o
                0x00018aa8                osGetSystemTime
 .text.osAllocMem
                0x00018ab8       0x20 ./common/os_port_none.o
                0x00018ab8                osAllocMem
 .text.osFreeMem
                0x00018ad8       0x2c ./common/os_port_none.o
                0x00018ad8                osFreeMem
 .text.XGpio_CfgInitialize
                0x00018b04       0x6c C:\ZYBO\Work-2018.2\APP6-GE\S4e-APP6-Vivado_Etudiant\APP6\APP6.sdk\standalone_bsp_0\microblaze_0\lib\libxil.a(xgpio.o)
                0x00018b04                XGpio_CfgInitialize
 .text.XGpio_SetDataDirection
                0x00018b70       0xe0 C:\ZYBO\Work-2018.2\APP6-GE\S4e-APP6-Vivado_Etudiant\APP6\APP6.sdk\standalone_bsp_0\microblaze_0\lib\libxil.a(xgpio.o)
                0x00018b70                XGpio_SetDataDirection
 .text.XGpio_DiscreteRead
                0x00018c50      0x108 C:\ZYBO\Work-2018.2\APP6-GE\S4e-APP6-Vivado_Etudiant\APP6\APP6.sdk\standalone_bsp_0\microblaze_0\lib\libxil.a(xgpio.o)
                0x00018c50                XGpio_DiscreteRead
 .text.XGpio_DiscreteWrite
                0x00018d58       0xe4 C:\ZYBO\Work-2018.2\APP6-GE\S4e-APP6-Vivado_Etudiant\APP6\APP6.sdk\standalone_bsp_0\microblaze_0\lib\libxil.a(xgpio.o)
                0x00018d58                XGpio_DiscreteWrite
 .text.XGpio_Initialize
                0x00018e3c       0xa4 C:\ZYBO\Work-2018.2\APP6-GE\S4e-APP6-Vivado_Etudiant\APP6\APP6.sdk\standalone_bsp_0\microblaze_0\lib\libxil.a(xgpio_sinit.o)
                0x00018e3c                XGpio_Initialize
 .text.StubHandler
                0x00018ee0       0x50 C:\ZYBO\Work-2018.2\APP6-GE\S4e-APP6-Vivado_Etudiant\APP6\APP6.sdk\standalone_bsp_0\microblaze_0\lib\libxil.a(xintc.o)
 .text.XIntc_Initialize
                0x00018f30      0x234 C:\ZYBO\Work-2018.2\APP6-GE\S4e-APP6-Vivado_Etudiant\APP6\APP6.sdk\standalone_bsp_0\microblaze_0\lib\libxil.a(xintc.o)
                0x00018f30                XIntc_Initialize
 .text.XIntc_Start
                0x00019164      0x114 C:\ZYBO\Work-2018.2\APP6-GE\S4e-APP6-Vivado_Etudiant\APP6\APP6.sdk\standalone_bsp_0\microblaze_0\lib\libxil.a(xintc.o)
                0x00019164                XIntc_Start
 .text.XIntc_Connect
                0x00019278      0x120 C:\ZYBO\Work-2018.2\APP6-GE\S4e-APP6-Vivado_Etudiant\APP6\APP6.sdk\standalone_bsp_0\microblaze_0\lib\libxil.a(xintc.o)
                0x00019278                XIntc_Connect
 .text.XIntc_Enable
                0x00019398       0xec C:\ZYBO\Work-2018.2\APP6-GE\S4e-APP6-Vivado_Etudiant\APP6\APP6.sdk\standalone_bsp_0\microblaze_0\lib\libxil.a(xintc.o)
                0x00019398                XIntc_Enable
 .text.XIntc_Disable
                0x00019484       0xf0 C:\ZYBO\Work-2018.2\APP6-GE\S4e-APP6-Vivado_Etudiant\APP6\APP6.sdk\standalone_bsp_0\microblaze_0\lib\libxil.a(xintc.o)
                0x00019484                XIntc_Disable
 .text.XIntc_Acknowledge
                0x00019574       0xe4 C:\ZYBO\Work-2018.2\APP6-GE\S4e-APP6-Vivado_Etudiant\APP6\APP6.sdk\standalone_bsp_0\microblaze_0\lib\libxil.a(xintc.o)
                0x00019574                XIntc_Acknowledge
 .text.XIntc_InterruptHandler
                0x00019658       0x5c C:\ZYBO\Work-2018.2\APP6-GE\S4e-APP6-Vivado_Etudiant\APP6\APP6.sdk\standalone_bsp_0\microblaze_0\lib\libxil.a(xintc_intr.o)
                0x00019658                XIntc_InterruptHandler
 .text.XIntc_DeviceInterruptHandler
                0x000196b4      0x150 C:\ZYBO\Work-2018.2\APP6-GE\S4e-APP6-Vivado_Etudiant\APP6\APP6.sdk\standalone_bsp_0\microblaze_0\lib\libxil.a(xintc_l.o)
                0x000196b4                XIntc_DeviceInterruptHandler
 .text.StubStatusHandler
                0x00019804       0x34 C:\ZYBO\Work-2018.2\APP6-GE\S4e-APP6-Vivado_Etudiant\APP6\APP6.sdk\standalone_bsp_0\microblaze_0\lib\libxil.a(xspi.o)
 .text.XSpi_Reset
                0x00019838       0xd8 C:\ZYBO\Work-2018.2\APP6-GE\S4e-APP6-Vivado_Etudiant\APP6\APP6.sdk\standalone_bsp_0\microblaze_0\lib\libxil.a(xspi.o)
                0x00019838                XSpi_Reset
 .text.XSpi_CfgInitialize
                0x00019910      0x1b8 C:\ZYBO\Work-2018.2\APP6-GE\S4e-APP6-Vivado_Etudiant\APP6\APP6.sdk\standalone_bsp_0\microblaze_0\lib\libxil.a(xspi.o)
                0x00019910                XSpi_CfgInitialize
 .text.XSpi_LookupConfig
                0x00019ac8       0x28 C:\ZYBO\Work-2018.2\APP6-GE\S4e-APP6-Vivado_Etudiant\APP6\APP6.sdk\standalone_bsp_0\microblaze_0\lib\libxil.a(xspi_sinit.o)
                0x00019ac8                XSpi_LookupConfig
 .text.__interrupt_handler
                0x00019af0       0xa4 C:\ZYBO\Work-2018.2\APP6-GE\S4e-APP6-Vivado_Etudiant\APP6\APP6.sdk\standalone_bsp_0\microblaze_0\lib\libxil.a(microblaze_interrupt_handler.o)
                0x00019af0                __interrupt_handler
                0x00019af0                _interrupt_handler
 .text.outbyte  0x00019b94       0x2c C:\ZYBO\Work-2018.2\APP6-GE\S4e-APP6-Vivado_Etudiant\APP6\APP6.sdk\standalone_bsp_0\microblaze_0\lib\libxil.a(outbyte.o)
                0x00019b94                outbyte
 .text.Xil_Assert
                0x00019bc0       0x48 C:\ZYBO\Work-2018.2\APP6-GE\S4e-APP6-Vivado_Etudiant\APP6\APP6.sdk\standalone_bsp_0\microblaze_0\lib\libxil.a(xil_assert.o)
                0x00019bc0                Xil_Assert
 .text.XNullHandler
                0x00019c08        0x8 C:\ZYBO\Work-2018.2\APP6-GE\S4e-APP6-Vivado_Etudiant\APP6\APP6.sdk\standalone_bsp_0\microblaze_0\lib\libxil.a(xil_assert.o)
                0x00019c08                XNullHandler
 .text.Xil_ExceptionInit
                0x00019c10        0x8 C:\ZYBO\Work-2018.2\APP6-GE\S4e-APP6-Vivado_Etudiant\APP6\APP6.sdk\standalone_bsp_0\microblaze_0\lib\libxil.a(xil_exception.o)
                0x00019c10                Xil_ExceptionInit
 .text.Xil_ExceptionEnable
                0x00019c18       0x2c C:\ZYBO\Work-2018.2\APP6-GE\S4e-APP6-Vivado_Etudiant\APP6\APP6.sdk\standalone_bsp_0\microblaze_0\lib\libxil.a(xil_exception.o)
                0x00019c18                Xil_ExceptionEnable
 .text.Xil_ExceptionRegisterHandler
                0x00019c44       0x38 C:\ZYBO\Work-2018.2\APP6-GE\S4e-APP6-Vivado_Etudiant\APP6\APP6.sdk\standalone_bsp_0\microblaze_0\lib\libxil.a(xil_exception.o)
                0x00019c44                Xil_ExceptionRegisterHandler
 .text.getnum   0x00019c7c       0x70 C:\ZYBO\Work-2018.2\APP6-GE\S4e-APP6-Vivado_Etudiant\APP6\APP6.sdk\standalone_bsp_0\microblaze_0\lib\libxil.a(xil_printf.o)
 .text.padding.part.0
                0x00019cec       0x58 C:\ZYBO\Work-2018.2\APP6-GE\S4e-APP6-Vivado_Etudiant\APP6\APP6.sdk\standalone_bsp_0\microblaze_0\lib\libxil.a(xil_printf.o)
 .text.outnum   0x00019d44      0x1d8 C:\ZYBO\Work-2018.2\APP6-GE\S4e-APP6-Vivado_Etudiant\APP6\APP6.sdk\standalone_bsp_0\microblaze_0\lib\libxil.a(xil_printf.o)
 .text.xil_printf
                0x00019f1c      0x42c C:\ZYBO\Work-2018.2\APP6-GE\S4e-APP6-Vivado_Etudiant\APP6\APP6.sdk\standalone_bsp_0\microblaze_0\lib\libxil.a(xil_printf.o)
                0x00019f1c                xil_printf
 .text.StubHandler
                0x0001a348       0x34 C:\ZYBO\Work-2018.2\APP6-GE\S4e-APP6-Vivado_Etudiant\APP6\APP6.sdk\standalone_bsp_0\microblaze_0\lib\libxil.a(xuartlite.o)
 .text.XUartLite_CfgInitialize
                0x0001a37c       0x9c C:\ZYBO\Work-2018.2\APP6-GE\S4e-APP6-Vivado_Etudiant\APP6\APP6.sdk\standalone_bsp_0\microblaze_0\lib\libxil.a(xuartlite.o)
                0x0001a37c                XUartLite_CfgInitialize
 .text.XUartLite_ResetFifos
                0x0001a418       0x9c C:\ZYBO\Work-2018.2\APP6-GE\S4e-APP6-Vivado_Etudiant\APP6\APP6.sdk\standalone_bsp_0\microblaze_0\lib\libxil.a(xuartlite.o)
                0x0001a418                XUartLite_ResetFifos
 .text.XUartLite_SendBuffer
                0x0001a4b4       0x98 C:\ZYBO\Work-2018.2\APP6-GE\S4e-APP6-Vivado_Etudiant\APP6\APP6.sdk\standalone_bsp_0\microblaze_0\lib\libxil.a(xuartlite.o)
                0x0001a4b4                XUartLite_SendBuffer
 .text.XUartLite_Send
                0x0001a54c      0x174 C:\ZYBO\Work-2018.2\APP6-GE\S4e-APP6-Vivado_Etudiant\APP6\APP6.sdk\standalone_bsp_0\microblaze_0\lib\libxil.a(xuartlite.o)
                0x0001a54c                XUartLite_Send
 .text.XUartLite_ReceiveBuffer
                0x0001a6c0       0xc4 C:\ZYBO\Work-2018.2\APP6-GE\S4e-APP6-Vivado_Etudiant\APP6\APP6.sdk\standalone_bsp_0\microblaze_0\lib\libxil.a(xuartlite.o)
                0x0001a6c0                XUartLite_ReceiveBuffer
 .text.XUartLite_Recv
                0x0001a784      0x174 C:\ZYBO\Work-2018.2\APP6-GE\S4e-APP6-Vivado_Etudiant\APP6\APP6.sdk\standalone_bsp_0\microblaze_0\lib\libxil.a(xuartlite.o)
                0x0001a784                XUartLite_Recv
 .text.XUartLite_SendByte
                0x0001a8f8       0x1c C:\ZYBO\Work-2018.2\APP6-GE\S4e-APP6-Vivado_Etudiant\APP6\APP6.sdk\standalone_bsp_0\microblaze_0\lib\libxil.a(xuartlite_l.o)
                0x0001a8f8                XUartLite_SendByte
 .text.XUartLite_SelfTest
                0x0001a914      0x144 C:\ZYBO\Work-2018.2\APP6-GE\S4e-APP6-Vivado_Etudiant\APP6\APP6.sdk\standalone_bsp_0\microblaze_0\lib\libxil.a(xuartlite_selftest.o)
                0x0001a914                XUartLite_SelfTest
 .text.XUartLite_Initialize
                0x0001aa58       0xa0 C:\ZYBO\Work-2018.2\APP6-GE\S4e-APP6-Vivado_Etudiant\APP6\APP6.sdk\standalone_bsp_0\microblaze_0\lib\libxil.a(xuartlite_sinit.o)
                0x0001aa58                XUartLite_Initialize
 .text.XUartLite_ClearStats
                0x0001aaf8       0xa4 C:\ZYBO\Work-2018.2\APP6-GE\S4e-APP6-Vivado_Etudiant\APP6\APP6.sdk\standalone_bsp_0\microblaze_0\lib\libxil.a(xuartlite_stats.o)
                0x0001aaf8                XUartLite_ClearStats
 .text.__errno  0x0001ab9c       0x10 C:\ZYBO\Work-2018.2\APP6-GE\S4e-APP6-Vivado_Etudiant\APP6\APP6.sdk\standalone_bsp_0\microblaze_0\lib\libxil.a(errno.o)
                0x0001ab9c                __errno
 *(.gnu.linkonce.t.*)

.init           0x0001abac       0x3c
 *(.init)
 .init          0x0001abac       0x18 d:/xilinx/sdk/2018.2/gnu/microblaze/nt/bin/../lib/gcc/microblaze-xilinx-elf/7.2.0/m/le/crti.o
                0x0001abac                __init
 .init          0x0001abc4        0xc d:/xilinx/sdk/2018.2/gnu/microblaze/nt/bin/../lib/gcc/microblaze-xilinx-elf/7.2.0/m/le/crtbegin.o
 .init          0x0001abd0        0xc d:/xilinx/sdk/2018.2/gnu/microblaze/nt/bin/../lib/gcc/microblaze-xilinx-elf/7.2.0/m/le/crtend.o
 .init          0x0001abdc        0xc d:/xilinx/sdk/2018.2/gnu/microblaze/nt/bin/../lib/gcc/microblaze-xilinx-elf/7.2.0/m/le/crtn.o

.fini           0x0001abe8       0x20
 *(.fini)
 .fini          0x0001abe8        0x8 d:/xilinx/sdk/2018.2/gnu/microblaze/nt/bin/../lib/gcc/microblaze-xilinx-elf/7.2.0/m/le/crti.o
                0x0001abe8                __fini
 .fini          0x0001abf0        0xc d:/xilinx/sdk/2018.2/gnu/microblaze/nt/bin/../lib/gcc/microblaze-xilinx-elf/7.2.0/m/le/crtbegin.o
 .fini          0x0001abfc        0xc d:/xilinx/sdk/2018.2/gnu/microblaze/nt/bin/../lib/gcc/microblaze-xilinx-elf/7.2.0/m/le/crtn.o

.ctors          0x0001ac08        0x8
                0x0001ac08                __CTOR_LIST__ = .
                0x0001ac08                ___CTORS_LIST___ = .
 *crtbegin.o(.ctors)
 .ctors         0x0001ac08        0x4 d:/xilinx/sdk/2018.2/gnu/microblaze/nt/bin/../lib/gcc/microblaze-xilinx-elf/7.2.0/m/le/crtbegin.o
 *(EXCLUDE_FILE(*crtend.o) .ctors)
 *(SORT(.ctors.*))
 *(.ctors)
 .ctors         0x0001ac0c        0x4 d:/xilinx/sdk/2018.2/gnu/microblaze/nt/bin/../lib/gcc/microblaze-xilinx-elf/7.2.0/m/le/crtend.o
                0x0001ac10                __CTOR_END__ = .
                0x0001ac10                ___CTORS_END___ = .

.dtors          0x0001ac10        0x8
                0x0001ac10                __DTOR_LIST__ = .
                0x0001ac10                ___DTORS_LIST___ = .
 *crtbegin.o(.dtors)
 .dtors         0x0001ac10        0x4 d:/xilinx/sdk/2018.2/gnu/microblaze/nt/bin/../lib/gcc/microblaze-xilinx-elf/7.2.0/m/le/crtbegin.o
 *(EXCLUDE_FILE(*crtend.o) .dtors)
 *(SORT(.dtors.*))
 *(.dtors)
 .dtors         0x0001ac14        0x4 d:/xilinx/sdk/2018.2/gnu/microblaze/nt/bin/../lib/gcc/microblaze-xilinx-elf/7.2.0/m/le/crtend.o
                0x0001ac14                __DTOR_END__
                [!provide]                PROVIDE (__DTOR_END__, .)
                [!provide]                PROVIDE (___DTORS_END___, .)

.rodata         0x0001ac18      0xd80
                0x0001ac18                __rodata_start = .
 *(.rodata)
 .rodata        0x0001ac18       0x19 ./cyclone_tcp/std_services/echo.o
 *fill*         0x0001ac31        0x3 
 .rodata        0x0001ac34       0x1f ./cyclone_tcp/ipv4/arp.o
 *fill*         0x0001ac53        0x1 
 .rodata        0x0001ac54       0x3c ./cyclone_tcp/ipv4/ipv4.o
 .rodata        0x0001ac90       0x74 ./cyclone_tcp/core/ethernet.o
 .rodata        0x0001ad04        0x4 ./cyclone_tcp/core/ip.o
 .rodata        0x0001ad08       0x15 ./cyclone_tcp/core/net.o
 *fill*         0x0001ad1d        0x3 
 .rodata        0x0001ad20        0xe ./cyclone_tcp/core/nic.o
 *fill*         0x0001ad2e        0x2 
 .rodata        0x0001ad30       0x21 ./cyclone_tcp/core/socket.o
 *fill*         0x0001ad51        0x3 
 .rodata        0x0001ad54       0x30 ./cyclone_tcp/core/udp.o
 .rodata        0x0001ad84       0x9e ./cyclone_tcp/main.o
 *fill*         0x0001ae22        0x2 
 .rodata        0x0001ae24        0x8 C:\ZYBO\Work-2018.2\APP6-GE\S4e-APP6-Vivado_Etudiant\APP6\APP6.sdk\standalone_bsp_0\microblaze_0\lib\libxil.a(xgpio.o)
 .rodata        0x0001ae2c        0xe C:\ZYBO\Work-2018.2\APP6-GE\S4e-APP6-Vivado_Etudiant\APP6\APP6.sdk\standalone_bsp_0\microblaze_0\lib\libxil.a(xgpio_sinit.o)
 *fill*         0x0001ae3a        0x2 
 .rodata        0x0001ae3c        0x8 C:\ZYBO\Work-2018.2\APP6-GE\S4e-APP6-Vivado_Etudiant\APP6\APP6.sdk\standalone_bsp_0\microblaze_0\lib\libxil.a(xintc.o)
 .rodata        0x0001ae44        0xd C:\ZYBO\Work-2018.2\APP6-GE\S4e-APP6-Vivado_Etudiant\APP6\APP6.sdk\standalone_bsp_0\microblaze_0\lib\libxil.a(xintc_intr.o)
 *fill*         0x0001ae51        0x3 
 .rodata        0x0001ae54        0x7 C:\ZYBO\Work-2018.2\APP6-GE\S4e-APP6-Vivado_Etudiant\APP6\APP6.sdk\standalone_bsp_0\microblaze_0\lib\libxil.a(xspi.o)
 *fill*         0x0001ae5b        0x1 
 .rodata        0x0001ae5c       0x11 C:\ZYBO\Work-2018.2\APP6-GE\S4e-APP6-Vivado_Etudiant\APP6\APP6.sdk\standalone_bsp_0\microblaze_0\lib\libxil.a(xil_printf.o)
 *fill*         0x0001ae6d        0x3 
 .rodata        0x0001ae70        0xc C:\ZYBO\Work-2018.2\APP6-GE\S4e-APP6-Vivado_Etudiant\APP6\APP6.sdk\standalone_bsp_0\microblaze_0\lib\libxil.a(xuartlite.o)
 .rodata        0x0001ae7c       0x15 C:\ZYBO\Work-2018.2\APP6-GE\S4e-APP6-Vivado_Etudiant\APP6\APP6.sdk\standalone_bsp_0\microblaze_0\lib\libxil.a(xuartlite_selftest.o)
 *fill*         0x0001ae91        0x3 
 .rodata        0x0001ae94       0x12 C:\ZYBO\Work-2018.2\APP6-GE\S4e-APP6-Vivado_Etudiant\APP6\APP6.sdk\standalone_bsp_0\microblaze_0\lib\libxil.a(xuartlite_sinit.o)
 *fill*         0x0001aea6        0x2 
 .rodata        0x0001aea8       0x12 C:\ZYBO\Work-2018.2\APP6-GE\S4e-APP6-Vivado_Etudiant\APP6\APP6.sdk\standalone_bsp_0\microblaze_0\lib\libxil.a(xuartlite_stats.o)
 *fill*         0x0001aeba        0x2 
 .rodata        0x0001aebc      0x281 C:\ZYBO\Work-2018.2\APP6-GE\S4e-APP6-Vivado_Etudiant\APP6\APP6.sdk\standalone_bsp_0\microblaze_0\lib\libc.a(lib_a-ctype_.o)
                0x0001b03c                _ctype_
 *fill*         0x0001b13d        0x3 
 .rodata        0x0001b140        0x8 C:\ZYBO\Work-2018.2\APP6-GE\S4e-APP6-Vivado_Etudiant\APP6\APP6.sdk\standalone_bsp_0\microblaze_0\lib\libc.a(lib_a-impure.o)
                0x0001b144                _global_impure_ptr
 .rodata        0x0001b148      0x1f4 C:\ZYBO\Work-2018.2\APP6-GE\S4e-APP6-Vivado_Etudiant\APP6\APP6.sdk\standalone_bsp_0\microblaze_0\lib\libc.a(lib_a-svfprintf.o)
 .rodata        0x0001b33c       0x2c C:\ZYBO\Work-2018.2\APP6-GE\S4e-APP6-Vivado_Etudiant\APP6\APP6.sdk\standalone_bsp_0\microblaze_0\lib\libc.a(lib_a-dtoa.o)
 .rodata        0x0001b368       0x12 C:\ZYBO\Work-2018.2\APP6-GE\S4e-APP6-Vivado_Etudiant\APP6\APP6.sdk\standalone_bsp_0\microblaze_0\lib\libc.a(lib_a-locale.o)
 *fill*         0x0001b37a        0x2 
 .rodata        0x0001b37c      0x124 C:\ZYBO\Work-2018.2\APP6-GE\S4e-APP6-Vivado_Etudiant\APP6\APP6.sdk\standalone_bsp_0\microblaze_0\lib\libc.a(lib_a-mprec.o)
                0x0001b37c                __mprec_tens
                0x0001b444                __mprec_bigtens
                0x0001b46c                __mprec_tinytens
 .rodata        0x0001b4a0      0x1d8 C:\ZYBO\Work-2018.2\APP6-GE\S4e-APP6-Vivado_Etudiant\APP6\APP6.sdk\standalone_bsp_0\microblaze_0\lib\libc.a(lib_a-svfiprintf.o)
 .rodata        0x0001b678       0x14 C:\ZYBO\Work-2018.2\APP6-GE\S4e-APP6-Vivado_Etudiant\APP6\APP6.sdk\standalone_bsp_0\microblaze_0\lib\libgcc.a(_thenan_df.o)
                0x0001b678                __thenan_df
 .rodata        0x0001b68c      0x100 C:\ZYBO\Work-2018.2\APP6-GE\S4e-APP6-Vivado_Etudiant\APP6\APP6.sdk\standalone_bsp_0\microblaze_0\lib\libgcc.a(_clz.o)
                0x0001b68c                __clz_tab
 *(.rodata.*)
 .rodata.enc624j600Driver
                0x0001b78c       0x40 ./cyclone_tcp/drivers/eth/enc624j600_driver.o
                0x0001b78c                enc624j600Driver
 .rodata.ethPadding
                0x0001b7cc       0x40 ./cyclone_tcp/core/ethernet.o
                0x0001b7cc                ethPadding
 .rodata.MAC_BROADCAST_ADDR
                0x0001b80c        0x6 ./cyclone_tcp/core/ethernet.o
                0x0001b80c                MAC_BROADCAST_ADDR
 *fill*         0x0001b812        0x2 
 .rodata.MAC_UNSPECIFIED_ADDR
                0x0001b814        0x6 ./cyclone_tcp/core/ethernet.o
                0x0001b814                MAC_UNSPECIFIED_ADDR
 *fill*         0x0001b81a        0x2 
 .rodata.IP_ADDR_ANY
                0x0001b81c        0x8 ./cyclone_tcp/core/ip.o
                0x0001b81c                IP_ADDR_ANY
 .rodata.extIntDriver
                0x0001b824        0xc ./cyclone_tcp/ext_int_driver.o
                0x0001b824                extIntDriver
 .rodata.spiDriver
                0x0001b830       0x18 ./cyclone_tcp/spi_driver.o
                0x0001b830                spiDriver
 .rodata.xil_printf
                0x0001b848      0x150 C:\ZYBO\Work-2018.2\APP6-GE\S4e-APP6-Vivado_Etudiant\APP6\APP6.sdk\standalone_bsp_0\microblaze_0\lib\libxil.a(xil_printf.o)
 *(.gnu.linkonce.r.*)
                0x0001b998                __rodata_end = .

.rela.dyn       0x0001b998        0x0
 .rela.text     0x0001b998        0x0 d:/xilinx/sdk/2018.2/gnu/microblaze/nt/bin/../lib/gcc/microblaze-xilinx-elf/7.2.0/../../../../microblaze-xilinx-elf/lib/m/le/crt0.o
 .rela.vectors.sw_exception
                0x0001b998        0x0 d:/xilinx/sdk/2018.2/gnu/microblaze/nt/bin/../lib/gcc/microblaze-xilinx-elf/7.2.0/../../../../microblaze-xilinx-elf/lib/m/le/crt0.o
 .rela.vectors.interrupt
                0x0001b998        0x0 d:/xilinx/sdk/2018.2/gnu/microblaze/nt/bin/../lib/gcc/microblaze-xilinx-elf/7.2.0/../../../../microblaze-xilinx-elf/lib/m/le/crt0.o
 .rela.vectors.hw_exception
                0x0001b998        0x0 d:/xilinx/sdk/2018.2/gnu/microblaze/nt/bin/../lib/gcc/microblaze-xilinx-elf/7.2.0/../../../../microblaze-xilinx-elf/lib/m/le/crt0.o
 .rela.text.udpEchoStart
                0x0001b998        0x0 d:/xilinx/sdk/2018.2/gnu/microblaze/nt/bin/../lib/gcc/microblaze-xilinx-elf/7.2.0/../../../../microblaze-xilinx-elf/lib/m/le/crt0.o
 .rela.text.udpEchoTask
                0x0001b998        0x0 d:/xilinx/sdk/2018.2/gnu/microblaze/nt/bin/../lib/gcc/microblaze-xilinx-elf/7.2.0/../../../../microblaze-xilinx-elf/lib/m/le/crt0.o
 .rela.text.arpInit
                0x0001b998        0x0 d:/xilinx/sdk/2018.2/gnu/microblaze/nt/bin/../lib/gcc/microblaze-xilinx-elf/7.2.0/../../../../microblaze-xilinx-elf/lib/m/le/crt0.o
 .rela.text.arpSendQueuedPackets
                0x0001b998        0x0 d:/xilinx/sdk/2018.2/gnu/microblaze/nt/bin/../lib/gcc/microblaze-xilinx-elf/7.2.0/../../../../microblaze-xilinx-elf/lib/m/le/crt0.o
 .rela.text.arpFlushQueuedPackets
                0x0001b998        0x0 d:/xilinx/sdk/2018.2/gnu/microblaze/nt/bin/../lib/gcc/microblaze-xilinx-elf/7.2.0/../../../../microblaze-xilinx-elf/lib/m/le/crt0.o
 .rela.text.arpCreateEntry
                0x0001b998        0x0 d:/xilinx/sdk/2018.2/gnu/microblaze/nt/bin/../lib/gcc/microblaze-xilinx-elf/7.2.0/../../../../microblaze-xilinx-elf/lib/m/le/crt0.o
 .rela.text.arpEnqueuePacket
                0x0001b998        0x0 d:/xilinx/sdk/2018.2/gnu/microblaze/nt/bin/../lib/gcc/microblaze-xilinx-elf/7.2.0/../../../../microblaze-xilinx-elf/lib/m/le/crt0.o
 .rela.text.arpProcessReply
                0x0001b998        0x0 d:/xilinx/sdk/2018.2/gnu/microblaze/nt/bin/../lib/gcc/microblaze-xilinx-elf/7.2.0/../../../../microblaze-xilinx-elf/lib/m/le/crt0.o
 .rela.text.arpSendProbe
                0x0001b998        0x0 d:/xilinx/sdk/2018.2/gnu/microblaze/nt/bin/../lib/gcc/microblaze-xilinx-elf/7.2.0/../../../../microblaze-xilinx-elf/lib/m/le/crt0.o
 .rela.text.arpSendRequest
                0x0001b998        0x0 d:/xilinx/sdk/2018.2/gnu/microblaze/nt/bin/../lib/gcc/microblaze-xilinx-elf/7.2.0/../../../../microblaze-xilinx-elf/lib/m/le/crt0.o
 .rela.text.arpResolve
                0x0001b998        0x0 d:/xilinx/sdk/2018.2/gnu/microblaze/nt/bin/../lib/gcc/microblaze-xilinx-elf/7.2.0/../../../../microblaze-xilinx-elf/lib/m/le/crt0.o
 .rela.text.arpTick
                0x0001b998        0x0 d:/xilinx/sdk/2018.2/gnu/microblaze/nt/bin/../lib/gcc/microblaze-xilinx-elf/7.2.0/../../../../microblaze-xilinx-elf/lib/m/le/crt0.o
 .rela.text.arpSendReply
                0x0001b998        0x0 d:/xilinx/sdk/2018.2/gnu/microblaze/nt/bin/../lib/gcc/microblaze-xilinx-elf/7.2.0/../../../../microblaze-xilinx-elf/lib/m/le/crt0.o
 .rela.text.arpProcessRequest
                0x0001b998        0x0 d:/xilinx/sdk/2018.2/gnu/microblaze/nt/bin/../lib/gcc/microblaze-xilinx-elf/7.2.0/../../../../microblaze-xilinx-elf/lib/m/le/crt0.o
 .rela.text.arpProcessPacket
                0x0001b998        0x0 d:/xilinx/sdk/2018.2/gnu/microblaze/nt/bin/../lib/gcc/microblaze-xilinx-elf/7.2.0/../../../../microblaze-xilinx-elf/lib/m/le/crt0.o
 .rela.text.ipv4Init
                0x0001b998        0x0 d:/xilinx/sdk/2018.2/gnu/microblaze/nt/bin/../lib/gcc/microblaze-xilinx-elf/7.2.0/../../../../microblaze-xilinx-elf/lib/m/le/crt0.o
 .rela.text.ipv4SetHostAddr
                0x0001b998        0x0 d:/xilinx/sdk/2018.2/gnu/microblaze/nt/bin/../lib/gcc/microblaze-xilinx-elf/7.2.0/../../../../microblaze-xilinx-elf/lib/m/le/crt0.o
 .rela.text.ipv4GetHostAddr
                0x0001b998        0x0 d:/xilinx/sdk/2018.2/gnu/microblaze/nt/bin/../lib/gcc/microblaze-xilinx-elf/7.2.0/../../../../microblaze-xilinx-elf/lib/m/le/crt0.o
 .rela.text.ipv4SetSubnetMask
                0x0001b998        0x0 d:/xilinx/sdk/2018.2/gnu/microblaze/nt/bin/../lib/gcc/microblaze-xilinx-elf/7.2.0/../../../../microblaze-xilinx-elf/lib/m/le/crt0.o
 .rela.text.ipv4GetSubnetMask
                0x0001b998        0x0 d:/xilinx/sdk/2018.2/gnu/microblaze/nt/bin/../lib/gcc/microblaze-xilinx-elf/7.2.0/../../../../microblaze-xilinx-elf/lib/m/le/crt0.o
 .rela.text.ipv4SetDefaultGateway
                0x0001b998        0x0 d:/xilinx/sdk/2018.2/gnu/microblaze/nt/bin/../lib/gcc/microblaze-xilinx-elf/7.2.0/../../../../microblaze-xilinx-elf/lib/m/le/crt0.o
 .rela.text.ipv4GetDefaultGateway
                0x0001b998        0x0 d:/xilinx/sdk/2018.2/gnu/microblaze/nt/bin/../lib/gcc/microblaze-xilinx-elf/7.2.0/../../../../microblaze-xilinx-elf/lib/m/le/crt0.o
 .rela.text.ipv4SetDnsServer
                0x0001b998        0x0 d:/xilinx/sdk/2018.2/gnu/microblaze/nt/bin/../lib/gcc/microblaze-xilinx-elf/7.2.0/../../../../microblaze-xilinx-elf/lib/m/le/crt0.o
 .rela.text.ipv4GetDnsServer
                0x0001b998        0x0 d:/xilinx/sdk/2018.2/gnu/microblaze/nt/bin/../lib/gcc/microblaze-xilinx-elf/7.2.0/../../../../microblaze-xilinx-elf/lib/m/le/crt0.o
 .rela.text.ipv4LinkChangeEvent
                0x0001b998        0x0 d:/xilinx/sdk/2018.2/gnu/microblaze/nt/bin/../lib/gcc/microblaze-xilinx-elf/7.2.0/../../../../microblaze-xilinx-elf/lib/m/le/crt0.o
 .rela.text.ipv4ProcessDatagram
                0x0001b998        0x0 d:/xilinx/sdk/2018.2/gnu/microblaze/nt/bin/../lib/gcc/microblaze-xilinx-elf/7.2.0/../../../../microblaze-xilinx-elf/lib/m/le/crt0.o
 .rela.text.ipv4ProcessPacket
                0x0001b998        0x0 d:/xilinx/sdk/2018.2/gnu/microblaze/nt/bin/../lib/gcc/microblaze-xilinx-elf/7.2.0/../../../../microblaze-xilinx-elf/lib/m/le/crt0.o
 .rela.text.ipv4SelectSourceAddr
                0x0001b998        0x0 d:/xilinx/sdk/2018.2/gnu/microblaze/nt/bin/../lib/gcc/microblaze-xilinx-elf/7.2.0/../../../../microblaze-xilinx-elf/lib/m/le/crt0.o
 .rela.text.ipv4GetPrefixLength
                0x0001b998        0x0 d:/xilinx/sdk/2018.2/gnu/microblaze/nt/bin/../lib/gcc/microblaze-xilinx-elf/7.2.0/../../../../microblaze-xilinx-elf/lib/m/le/crt0.o
 .rela.text.ipv4JoinMulticastGroup
                0x0001b998        0x0 d:/xilinx/sdk/2018.2/gnu/microblaze/nt/bin/../lib/gcc/microblaze-xilinx-elf/7.2.0/../../../../microblaze-xilinx-elf/lib/m/le/crt0.o
 .rela.text.ipv4LeaveMulticastGroup
                0x0001b998        0x0 d:/xilinx/sdk/2018.2/gnu/microblaze/nt/bin/../lib/gcc/microblaze-xilinx-elf/7.2.0/../../../../microblaze-xilinx-elf/lib/m/le/crt0.o
 .rela.text.ipv4SendPacket
                0x0001b998        0x0 d:/xilinx/sdk/2018.2/gnu/microblaze/nt/bin/../lib/gcc/microblaze-xilinx-elf/7.2.0/../../../../microblaze-xilinx-elf/lib/m/le/crt0.o
 .rela.text.ipv4SendDatagram
                0x0001b998        0x0 d:/xilinx/sdk/2018.2/gnu/microblaze/nt/bin/../lib/gcc/microblaze-xilinx-elf/7.2.0/../../../../microblaze-xilinx-elf/lib/m/le/crt0.o
 .rela.text.ipv4AddrToString
                0x0001b998        0x0 d:/xilinx/sdk/2018.2/gnu/microblaze/nt/bin/../lib/gcc/microblaze-xilinx-elf/7.2.0/../../../../microblaze-xilinx-elf/lib/m/le/crt0.o
 .rela.text.enc624j600ReceivePacket
                0x0001b998        0x0 d:/xilinx/sdk/2018.2/gnu/microblaze/nt/bin/../lib/gcc/microblaze-xilinx-elf/7.2.0/../../../../microblaze-xilinx-elf/lib/m/le/crt0.o
 .rela.text.enc624j600Init
                0x0001b998        0x0 d:/xilinx/sdk/2018.2/gnu/microblaze/nt/bin/../lib/gcc/microblaze-xilinx-elf/7.2.0/../../../../microblaze-xilinx-elf/lib/m/le/crt0.o
 .rela.text.enc624j600IrqHandler
                0x0001b998        0x0 d:/xilinx/sdk/2018.2/gnu/microblaze/nt/bin/../lib/gcc/microblaze-xilinx-elf/7.2.0/../../../../microblaze-xilinx-elf/lib/m/le/crt0.o
 .rela.text.enc624j600EventHandler
                0x0001b998        0x0 d:/xilinx/sdk/2018.2/gnu/microblaze/nt/bin/../lib/gcc/microblaze-xilinx-elf/7.2.0/../../../../microblaze-xilinx-elf/lib/m/le/crt0.o
 .rela.text.enc624j600SendPacket
                0x0001b998        0x0 d:/xilinx/sdk/2018.2/gnu/microblaze/nt/bin/../lib/gcc/microblaze-xilinx-elf/7.2.0/../../../../microblaze-xilinx-elf/lib/m/le/crt0.o
 .rela.text.ethInit
                0x0001b998        0x0 d:/xilinx/sdk/2018.2/gnu/microblaze/nt/bin/../lib/gcc/microblaze-xilinx-elf/7.2.0/../../../../microblaze-xilinx-elf/lib/m/le/crt0.o
 .rela.text.ethPadFrame
                0x0001b998        0x0 d:/xilinx/sdk/2018.2/gnu/microblaze/nt/bin/../lib/gcc/microblaze-xilinx-elf/7.2.0/../../../../microblaze-xilinx-elf/lib/m/le/crt0.o
 .rela.text.ethCheckDestAddr
                0x0001b998        0x0 d:/xilinx/sdk/2018.2/gnu/microblaze/nt/bin/../lib/gcc/microblaze-xilinx-elf/7.2.0/../../../../microblaze-xilinx-elf/lib/m/le/crt0.o
 .rela.text.ethAcceptMacAddr
                0x0001b998        0x0 d:/xilinx/sdk/2018.2/gnu/microblaze/nt/bin/../lib/gcc/microblaze-xilinx-elf/7.2.0/../../../../microblaze-xilinx-elf/lib/m/le/crt0.o
 .rela.text.ethDropMacAddr
                0x0001b998        0x0 d:/xilinx/sdk/2018.2/gnu/microblaze/nt/bin/../lib/gcc/microblaze-xilinx-elf/7.2.0/../../../../microblaze-xilinx-elf/lib/m/le/crt0.o
 .rela.text.ethProcessFrame
                0x0001b998        0x0 d:/xilinx/sdk/2018.2/gnu/microblaze/nt/bin/../lib/gcc/microblaze-xilinx-elf/7.2.0/../../../../microblaze-xilinx-elf/lib/m/le/crt0.o
 .rela.text.ethSendFrame
                0x0001b998        0x0 d:/xilinx/sdk/2018.2/gnu/microblaze/nt/bin/../lib/gcc/microblaze-xilinx-elf/7.2.0/../../../../microblaze-xilinx-elf/lib/m/le/crt0.o
 .rela.text.ethAllocBuffer
                0x0001b998        0x0 d:/xilinx/sdk/2018.2/gnu/microblaze/nt/bin/../lib/gcc/microblaze-xilinx-elf/7.2.0/../../../../microblaze-xilinx-elf/lib/m/le/crt0.o
 .rela.text.macStringToAddr
                0x0001b998        0x0 d:/xilinx/sdk/2018.2/gnu/microblaze/nt/bin/../lib/gcc/microblaze-xilinx-elf/7.2.0/../../../../microblaze-xilinx-elf/lib/m/le/crt0.o
 .rela.text.macAddrToString
                0x0001b998        0x0 d:/xilinx/sdk/2018.2/gnu/microblaze/nt/bin/../lib/gcc/microblaze-xilinx-elf/7.2.0/../../../../microblaze-xilinx-elf/lib/m/le/crt0.o
 .rela.text.eui64StringToAddr
                0x0001b998        0x0 d:/xilinx/sdk/2018.2/gnu/microblaze/nt/bin/../lib/gcc/microblaze-xilinx-elf/7.2.0/../../../../microblaze-xilinx-elf/lib/m/le/crt0.o
 .rela.text.eui64AddrToString
                0x0001b998        0x0 d:/xilinx/sdk/2018.2/gnu/microblaze/nt/bin/../lib/gcc/microblaze-xilinx-elf/7.2.0/../../../../microblaze-xilinx-elf/lib/m/le/crt0.o
 .rela.text.ipSendDatagram
                0x0001b998        0x0 d:/xilinx/sdk/2018.2/gnu/microblaze/nt/bin/../lib/gcc/microblaze-xilinx-elf/7.2.0/../../../../microblaze-xilinx-elf/lib/m/le/crt0.o
 .rela.text.ipJoinMulticastGroup
                0x0001b998        0x0 d:/xilinx/sdk/2018.2/gnu/microblaze/nt/bin/../lib/gcc/microblaze-xilinx-elf/7.2.0/../../../../microblaze-xilinx-elf/lib/m/le/crt0.o
 .rela.text.ipLeaveMulticastGroup
                0x0001b998        0x0 d:/xilinx/sdk/2018.2/gnu/microblaze/nt/bin/../lib/gcc/microblaze-xilinx-elf/7.2.0/../../../../microblaze-xilinx-elf/lib/m/le/crt0.o
 .rela.text.ipStringToAddr
                0x0001b998        0x0 d:/xilinx/sdk/2018.2/gnu/microblaze/nt/bin/../lib/gcc/microblaze-xilinx-elf/7.2.0/../../../../microblaze-xilinx-elf/lib/m/le/crt0.o
 .rela.text.netInit
                0x0001b998        0x0 d:/xilinx/sdk/2018.2/gnu/microblaze/nt/bin/../lib/gcc/microblaze-xilinx-elf/7.2.0/../../../../microblaze-xilinx-elf/lib/m/le/crt0.o
 .rela.text.netSetMacAddr
                0x0001b998        0x0 d:/xilinx/sdk/2018.2/gnu/microblaze/nt/bin/../lib/gcc/microblaze-xilinx-elf/7.2.0/../../../../microblaze-xilinx-elf/lib/m/le/crt0.o
 .rela.text.netGetMacAddr
                0x0001b998        0x0 d:/xilinx/sdk/2018.2/gnu/microblaze/nt/bin/../lib/gcc/microblaze-xilinx-elf/7.2.0/../../../../microblaze-xilinx-elf/lib/m/le/crt0.o
 .rela.text.netSetEui64
                0x0001b998        0x0 d:/xilinx/sdk/2018.2/gnu/microblaze/nt/bin/../lib/gcc/microblaze-xilinx-elf/7.2.0/../../../../microblaze-xilinx-elf/lib/m/le/crt0.o
 .rela.text.netGetEui64
                0x0001b998        0x0 d:/xilinx/sdk/2018.2/gnu/microblaze/nt/bin/../lib/gcc/microblaze-xilinx-elf/7.2.0/../../../../microblaze-xilinx-elf/lib/m/le/crt0.o
 .rela.text.netSetInterfaceId
                0x0001b998        0x0 d:/xilinx/sdk/2018.2/gnu/microblaze/nt/bin/../lib/gcc/microblaze-xilinx-elf/7.2.0/../../../../microblaze-xilinx-elf/lib/m/le/crt0.o
 .rela.text.netSetInterfaceName
                0x0001b998        0x0 d:/xilinx/sdk/2018.2/gnu/microblaze/nt/bin/../lib/gcc/microblaze-xilinx-elf/7.2.0/../../../../microblaze-xilinx-elf/lib/m/le/crt0.o
 .rela.text.netSetHostname
                0x0001b998        0x0 d:/xilinx/sdk/2018.2/gnu/microblaze/nt/bin/../lib/gcc/microblaze-xilinx-elf/7.2.0/../../../../microblaze-xilinx-elf/lib/m/le/crt0.o
 .rela.text.netSetProxy
                0x0001b998        0x0 d:/xilinx/sdk/2018.2/gnu/microblaze/nt/bin/../lib/gcc/microblaze-xilinx-elf/7.2.0/../../../../microblaze-xilinx-elf/lib/m/le/crt0.o
 .rela.text.netSetDriver
                0x0001b998        0x0 d:/xilinx/sdk/2018.2/gnu/microblaze/nt/bin/../lib/gcc/microblaze-xilinx-elf/7.2.0/../../../../microblaze-xilinx-elf/lib/m/le/crt0.o
 .rela.text.netSetPhyDriver
                0x0001b998        0x0 d:/xilinx/sdk/2018.2/gnu/microblaze/nt/bin/../lib/gcc/microblaze-xilinx-elf/7.2.0/../../../../microblaze-xilinx-elf/lib/m/le/crt0.o
 .rela.text.netSetPhyAddr
                0x0001b998        0x0 d:/xilinx/sdk/2018.2/gnu/microblaze/nt/bin/../lib/gcc/microblaze-xilinx-elf/7.2.0/../../../../microblaze-xilinx-elf/lib/m/le/crt0.o
 .rela.text.netSetSpiDriver
                0x0001b998        0x0 d:/xilinx/sdk/2018.2/gnu/microblaze/nt/bin/../lib/gcc/microblaze-xilinx-elf/7.2.0/../../../../microblaze-xilinx-elf/lib/m/le/crt0.o
 .rela.text.netSetUartDriver
                0x0001b998        0x0 d:/xilinx/sdk/2018.2/gnu/microblaze/nt/bin/../lib/gcc/microblaze-xilinx-elf/7.2.0/../../../../microblaze-xilinx-elf/lib/m/le/crt0.o
 .rela.text.netSetExtIntDriver
                0x0001b998        0x0 d:/xilinx/sdk/2018.2/gnu/microblaze/nt/bin/../lib/gcc/microblaze-xilinx-elf/7.2.0/../../../../microblaze-xilinx-elf/lib/m/le/crt0.o
 .rela.text.netSetLinkState
                0x0001b998        0x0 d:/xilinx/sdk/2018.2/gnu/microblaze/nt/bin/../lib/gcc/microblaze-xilinx-elf/7.2.0/../../../../microblaze-xilinx-elf/lib/m/le/crt0.o
 .rela.text.netGetLinkState
                0x0001b998        0x0 d:/xilinx/sdk/2018.2/gnu/microblaze/nt/bin/../lib/gcc/microblaze-xilinx-elf/7.2.0/../../../../microblaze-xilinx-elf/lib/m/le/crt0.o
 .rela.text.netConfigInterface
                0x0001b998        0x0 d:/xilinx/sdk/2018.2/gnu/microblaze/nt/bin/../lib/gcc/microblaze-xilinx-elf/7.2.0/../../../../microblaze-xilinx-elf/lib/m/le/crt0.o
 .rela.text.netTaskInit
                0x0001b998        0x0 d:/xilinx/sdk/2018.2/gnu/microblaze/nt/bin/../lib/gcc/microblaze-xilinx-elf/7.2.0/../../../../microblaze-xilinx-elf/lib/m/le/crt0.o
 .rela.text.netTick
                0x0001b998        0x0 d:/xilinx/sdk/2018.2/gnu/microblaze/nt/bin/../lib/gcc/microblaze-xilinx-elf/7.2.0/../../../../microblaze-xilinx-elf/lib/m/le/crt0.o
 .rela.text.netTask
                0x0001b998        0x0 d:/xilinx/sdk/2018.2/gnu/microblaze/nt/bin/../lib/gcc/microblaze-xilinx-elf/7.2.0/../../../../microblaze-xilinx-elf/lib/m/le/crt0.o
 .rela.text.netAttachLinkChangeCallback
                0x0001b998        0x0 d:/xilinx/sdk/2018.2/gnu/microblaze/nt/bin/../lib/gcc/microblaze-xilinx-elf/7.2.0/../../../../microblaze-xilinx-elf/lib/m/le/crt0.o
 .rela.text.netDetachLinkChangeCallback
                0x0001b998        0x0 d:/xilinx/sdk/2018.2/gnu/microblaze/nt/bin/../lib/gcc/microblaze-xilinx-elf/7.2.0/../../../../microblaze-xilinx-elf/lib/m/le/crt0.o
 .rela.text.netInvokeLinkChangeCallback
                0x0001b998        0x0 d:/xilinx/sdk/2018.2/gnu/microblaze/nt/bin/../lib/gcc/microblaze-xilinx-elf/7.2.0/../../../../microblaze-xilinx-elf/lib/m/le/crt0.o
 .rela.text.memPoolAlloc
                0x0001b998        0x0 d:/xilinx/sdk/2018.2/gnu/microblaze/nt/bin/../lib/gcc/microblaze-xilinx-elf/7.2.0/../../../../microblaze-xilinx-elf/lib/m/le/crt0.o
 .rela.text.memPoolFree
                0x0001b998        0x0 d:/xilinx/sdk/2018.2/gnu/microblaze/nt/bin/../lib/gcc/microblaze-xilinx-elf/7.2.0/../../../../microblaze-xilinx-elf/lib/m/le/crt0.o
 .rela.text.netBufferSetLength
                0x0001b998        0x0 d:/xilinx/sdk/2018.2/gnu/microblaze/nt/bin/../lib/gcc/microblaze-xilinx-elf/7.2.0/../../../../microblaze-xilinx-elf/lib/m/le/crt0.o
 .rela.text.netBufferFree
                0x0001b998        0x0 d:/xilinx/sdk/2018.2/gnu/microblaze/nt/bin/../lib/gcc/microblaze-xilinx-elf/7.2.0/../../../../microblaze-xilinx-elf/lib/m/le/crt0.o
 .rela.text.netBufferAlloc
                0x0001b998        0x0 d:/xilinx/sdk/2018.2/gnu/microblaze/nt/bin/../lib/gcc/microblaze-xilinx-elf/7.2.0/../../../../microblaze-xilinx-elf/lib/m/le/crt0.o
 .rela.text.netBufferCopy
                0x0001b998        0x0 d:/xilinx/sdk/2018.2/gnu/microblaze/nt/bin/../lib/gcc/microblaze-xilinx-elf/7.2.0/../../../../microblaze-xilinx-elf/lib/m/le/crt0.o
 .rela.text.netBufferWrite
                0x0001b998        0x0 d:/xilinx/sdk/2018.2/gnu/microblaze/nt/bin/../lib/gcc/microblaze-xilinx-elf/7.2.0/../../../../microblaze-xilinx-elf/lib/m/le/crt0.o
 .rela.text.netBufferRead
                0x0001b998        0x0 d:/xilinx/sdk/2018.2/gnu/microblaze/nt/bin/../lib/gcc/microblaze-xilinx-elf/7.2.0/../../../../microblaze-xilinx-elf/lib/m/le/crt0.o
 .rela.text.nicSendPacket
                0x0001b998        0x0 d:/xilinx/sdk/2018.2/gnu/microblaze/nt/bin/../lib/gcc/microblaze-xilinx-elf/7.2.0/../../../../microblaze-xilinx-elf/lib/m/le/crt0.o
 .rela.text.nicProcessPacket
                0x0001b998        0x0 d:/xilinx/sdk/2018.2/gnu/microblaze/nt/bin/../lib/gcc/microblaze-xilinx-elf/7.2.0/../../../../microblaze-xilinx-elf/lib/m/le/crt0.o
 .rela.text.nicNotifyLinkChange
                0x0001b998        0x0 d:/xilinx/sdk/2018.2/gnu/microblaze/nt/bin/../lib/gcc/microblaze-xilinx-elf/7.2.0/../../../../microblaze-xilinx-elf/lib/m/le/crt0.o
 .rela.text.socketInit
                0x0001b998        0x0 d:/xilinx/sdk/2018.2/gnu/microblaze/nt/bin/../lib/gcc/microblaze-xilinx-elf/7.2.0/../../../../microblaze-xilinx-elf/lib/m/le/crt0.o
 .rela.text.socketOpen
                0x0001b998        0x0 d:/xilinx/sdk/2018.2/gnu/microblaze/nt/bin/../lib/gcc/microblaze-xilinx-elf/7.2.0/../../../../microblaze-xilinx-elf/lib/m/le/crt0.o
 .rela.text.socketSetTimeout
                0x0001b998        0x0 d:/xilinx/sdk/2018.2/gnu/microblaze/nt/bin/../lib/gcc/microblaze-xilinx-elf/7.2.0/../../../../microblaze-xilinx-elf/lib/m/le/crt0.o
 .rela.text.socketSendTo
                0x0001b998        0x0 d:/xilinx/sdk/2018.2/gnu/microblaze/nt/bin/../lib/gcc/microblaze-xilinx-elf/7.2.0/../../../../microblaze-xilinx-elf/lib/m/le/crt0.o
 .rela.text.socketReceiveEx
                0x0001b998        0x0 d:/xilinx/sdk/2018.2/gnu/microblaze/nt/bin/../lib/gcc/microblaze-xilinx-elf/7.2.0/../../../../microblaze-xilinx-elf/lib/m/le/crt0.o
 .rela.text.socketClose
                0x0001b998        0x0 d:/xilinx/sdk/2018.2/gnu/microblaze/nt/bin/../lib/gcc/microblaze-xilinx-elf/7.2.0/../../../../microblaze-xilinx-elf/lib/m/le/crt0.o
 .rela.text.socketRegisterEvents
                0x0001b998        0x0 d:/xilinx/sdk/2018.2/gnu/microblaze/nt/bin/../lib/gcc/microblaze-xilinx-elf/7.2.0/../../../../microblaze-xilinx-elf/lib/m/le/crt0.o
 .rela.text.socketUnregisterEvents
                0x0001b998        0x0 d:/xilinx/sdk/2018.2/gnu/microblaze/nt/bin/../lib/gcc/microblaze-xilinx-elf/7.2.0/../../../../microblaze-xilinx-elf/lib/m/le/crt0.o
 .rela.text.socketGetEvents
                0x0001b998        0x0 d:/xilinx/sdk/2018.2/gnu/microblaze/nt/bin/../lib/gcc/microblaze-xilinx-elf/7.2.0/../../../../microblaze-xilinx-elf/lib/m/le/crt0.o
 .rela.text.socketPoll
                0x0001b998        0x0 d:/xilinx/sdk/2018.2/gnu/microblaze/nt/bin/../lib/gcc/microblaze-xilinx-elf/7.2.0/../../../../microblaze-xilinx-elf/lib/m/le/crt0.o
 .rela.text.udpInit
                0x0001b998        0x0 d:/xilinx/sdk/2018.2/gnu/microblaze/nt/bin/../lib/gcc/microblaze-xilinx-elf/7.2.0/../../../../microblaze-xilinx-elf/lib/m/le/crt0.o
 .rela.text.udpSendDatagramEx
                0x0001b998        0x0 d:/xilinx/sdk/2018.2/gnu/microblaze/nt/bin/../lib/gcc/microblaze-xilinx-elf/7.2.0/../../../../microblaze-xilinx-elf/lib/m/le/crt0.o
 .rela.text.udpSendDatagram
                0x0001b998        0x0 d:/xilinx/sdk/2018.2/gnu/microblaze/nt/bin/../lib/gcc/microblaze-xilinx-elf/7.2.0/../../../../microblaze-xilinx-elf/lib/m/le/crt0.o
 .rela.text.udpUpdateEvents
                0x0001b998        0x0 d:/xilinx/sdk/2018.2/gnu/microblaze/nt/bin/../lib/gcc/microblaze-xilinx-elf/7.2.0/../../../../microblaze-xilinx-elf/lib/m/le/crt0.o
 .rela.text.udpReceiveDatagram
                0x0001b998        0x0 d:/xilinx/sdk/2018.2/gnu/microblaze/nt/bin/../lib/gcc/microblaze-xilinx-elf/7.2.0/../../../../microblaze-xilinx-elf/lib/m/le/crt0.o
 .rela.text.udpAttachRxCallback
                0x0001b998        0x0 d:/xilinx/sdk/2018.2/gnu/microblaze/nt/bin/../lib/gcc/microblaze-xilinx-elf/7.2.0/../../../../microblaze-xilinx-elf/lib/m/le/crt0.o
 .rela.text.udpDetachRxCallback
                0x0001b998        0x0 d:/xilinx/sdk/2018.2/gnu/microblaze/nt/bin/../lib/gcc/microblaze-xilinx-elf/7.2.0/../../../../microblaze-xilinx-elf/lib/m/le/crt0.o
 .rela.text.udpInvokeRxCallback
                0x0001b998        0x0 d:/xilinx/sdk/2018.2/gnu/microblaze/nt/bin/../lib/gcc/microblaze-xilinx-elf/7.2.0/../../../../microblaze-xilinx-elf/lib/m/le/crt0.o
 .rela.text.udpProcessDatagram
                0x0001b998        0x0 d:/xilinx/sdk/2018.2/gnu/microblaze/nt/bin/../lib/gcc/microblaze-xilinx-elf/7.2.0/../../../../microblaze-xilinx-elf/lib/m/le/crt0.o
 .rela.text._Z15extIntEnableIrqv
                0x0001b998        0x0 d:/xilinx/sdk/2018.2/gnu/microblaze/nt/bin/../lib/gcc/microblaze-xilinx-elf/7.2.0/../../../../microblaze-xilinx-elf/lib/m/le/crt0.o
 .rela.text._Z16extIntDisableIrqv
                0x0001b998        0x0 d:/xilinx/sdk/2018.2/gnu/microblaze/nt/bin/../lib/gcc/microblaze-xilinx-elf/7.2.0/../../../../microblaze-xilinx-elf/lib/m/le/crt0.o
 .rela.text._Z15ENC_Int_HandlerPv
                0x0001b998        0x0 d:/xilinx/sdk/2018.2/gnu/microblaze/nt/bin/../lib/gcc/microblaze-xilinx-elf/7.2.0/../../../../microblaze-xilinx-elf/lib/m/le/crt0.o
 .rela.text._Z21MyIP_InterruptHandlerPv
                0x0001b998        0x0 d:/xilinx/sdk/2018.2/gnu/microblaze/nt/bin/../lib/gcc/microblaze-xilinx-elf/7.2.0/../../../../microblaze-xilinx-elf/lib/m/le/crt0.o
 .rela.text._Z10systemInitv
                0x0001b998        0x0 d:/xilinx/sdk/2018.2/gnu/microblaze/nt/bin/../lib/gcc/microblaze-xilinx-elf/7.2.0/../../../../microblaze-xilinx-elf/lib/m/le/crt0.o
 .rela.text._Z20SetupInterruptSystemv
                0x0001b998        0x0 d:/xilinx/sdk/2018.2/gnu/microblaze/nt/bin/../lib/gcc/microblaze-xilinx-elf/7.2.0/../../../../microblaze-xilinx-elf/lib/m/le/crt0.o
 .rela.text._Z9blinkTaskv
                0x0001b998        0x0 d:/xilinx/sdk/2018.2/gnu/microblaze/nt/bin/../lib/gcc/microblaze-xilinx-elf/7.2.0/../../../../microblaze-xilinx-elf/lib/m/le/crt0.o
 .rela.text._Z8uartInitv
                0x0001b998        0x0 d:/xilinx/sdk/2018.2/gnu/microblaze/nt/bin/../lib/gcc/microblaze-xilinx-elf/7.2.0/../../../../microblaze-xilinx-elf/lib/m/le/crt0.o
 .rela.text._Z8uartTaskv
                0x0001b998        0x0 d:/xilinx/sdk/2018.2/gnu/microblaze/nt/bin/../lib/gcc/microblaze-xilinx-elf/7.2.0/../../../../microblaze-xilinx-elf/lib/m/le/crt0.o
 .rela.text.startup.main
                0x0001b998        0x0 d:/xilinx/sdk/2018.2/gnu/microblaze/nt/bin/../lib/gcc/microblaze-xilinx-elf/7.2.0/../../../../microblaze-xilinx-elf/lib/m/le/crt0.o
 .rela.text._Z7spiInitv
                0x0001b998        0x0 d:/xilinx/sdk/2018.2/gnu/microblaze/nt/bin/../lib/gcc/microblaze-xilinx-elf/7.2.0/../../../../microblaze-xilinx-elf/lib/m/le/crt0.o
 .rela.text.formatSystemTime
                0x0001b998        0x0 d:/xilinx/sdk/2018.2/gnu/microblaze/nt/bin/../lib/gcc/microblaze-xilinx-elf/7.2.0/../../../../microblaze-xilinx-elf/lib/m/le/crt0.o
 .rela.text.formatDate
                0x0001b998        0x0 d:/xilinx/sdk/2018.2/gnu/microblaze/nt/bin/../lib/gcc/microblaze-xilinx-elf/7.2.0/../../../../microblaze-xilinx-elf/lib/m/le/crt0.o
 .rela.text.osAllocMem
                0x0001b998        0x0 d:/xilinx/sdk/2018.2/gnu/microblaze/nt/bin/../lib/gcc/microblaze-xilinx-elf/7.2.0/../../../../microblaze-xilinx-elf/lib/m/le/crt0.o
 .rela.text.osFreeMem
                0x0001b998        0x0 d:/xilinx/sdk/2018.2/gnu/microblaze/nt/bin/../lib/gcc/microblaze-xilinx-elf/7.2.0/../../../../microblaze-xilinx-elf/lib/m/le/crt0.o
 .rela.text.XGpio_CfgInitialize
                0x0001b998        0x0 d:/xilinx/sdk/2018.2/gnu/microblaze/nt/bin/../lib/gcc/microblaze-xilinx-elf/7.2.0/../../../../microblaze-xilinx-elf/lib/m/le/crt0.o
 .rela.text.XGpio_SetDataDirection
                0x0001b998        0x0 d:/xilinx/sdk/2018.2/gnu/microblaze/nt/bin/../lib/gcc/microblaze-xilinx-elf/7.2.0/../../../../microblaze-xilinx-elf/lib/m/le/crt0.o
 .rela.text.XGpio_GetDataDirection
                0x0001b998        0x0 d:/xilinx/sdk/2018.2/gnu/microblaze/nt/bin/../lib/gcc/microblaze-xilinx-elf/7.2.0/../../../../microblaze-xilinx-elf/lib/m/le/crt0.o
 .rela.text.XGpio_DiscreteRead
                0x0001b998        0x0 d:/xilinx/sdk/2018.2/gnu/microblaze/nt/bin/../lib/gcc/microblaze-xilinx-elf/7.2.0/../../../../microblaze-xilinx-elf/lib/m/le/crt0.o
 .rela.text.XGpio_DiscreteWrite
                0x0001b998        0x0 d:/xilinx/sdk/2018.2/gnu/microblaze/nt/bin/../lib/gcc/microblaze-xilinx-elf/7.2.0/../../../../microblaze-xilinx-elf/lib/m/le/crt0.o
 .rela.text.XGpio_LookupConfig
                0x0001b998        0x0 d:/xilinx/sdk/2018.2/gnu/microblaze/nt/bin/../lib/gcc/microblaze-xilinx-elf/7.2.0/../../../../microblaze-xilinx-elf/lib/m/le/crt0.o
 .rela.text.XGpio_Initialize
                0x0001b998        0x0 d:/xilinx/sdk/2018.2/gnu/microblaze/nt/bin/../lib/gcc/microblaze-xilinx-elf/7.2.0/../../../../microblaze-xilinx-elf/lib/m/le/crt0.o
 .rela.text.StubHandler
                0x0001b998        0x0 d:/xilinx/sdk/2018.2/gnu/microblaze/nt/bin/../lib/gcc/microblaze-xilinx-elf/7.2.0/../../../../microblaze-xilinx-elf/lib/m/le/crt0.o
 .rela.text.XIntc_Initialize
                0x0001b998        0x0 d:/xilinx/sdk/2018.2/gnu/microblaze/nt/bin/../lib/gcc/microblaze-xilinx-elf/7.2.0/../../../../microblaze-xilinx-elf/lib/m/le/crt0.o
 .rela.text.XIntc_Start
                0x0001b998        0x0 d:/xilinx/sdk/2018.2/gnu/microblaze/nt/bin/../lib/gcc/microblaze-xilinx-elf/7.2.0/../../../../microblaze-xilinx-elf/lib/m/le/crt0.o
 .rela.text.XIntc_Stop
                0x0001b998        0x0 d:/xilinx/sdk/2018.2/gnu/microblaze/nt/bin/../lib/gcc/microblaze-xilinx-elf/7.2.0/../../../../microblaze-xilinx-elf/lib/m/le/crt0.o
 .rela.text.XIntc_Connect
                0x0001b998        0x0 d:/xilinx/sdk/2018.2/gnu/microblaze/nt/bin/../lib/gcc/microblaze-xilinx-elf/7.2.0/../../../../microblaze-xilinx-elf/lib/m/le/crt0.o
 .rela.text.XIntc_Disconnect
                0x0001b998        0x0 d:/xilinx/sdk/2018.2/gnu/microblaze/nt/bin/../lib/gcc/microblaze-xilinx-elf/7.2.0/../../../../microblaze-xilinx-elf/lib/m/le/crt0.o
 .rela.text.XIntc_Enable
                0x0001b998        0x0 d:/xilinx/sdk/2018.2/gnu/microblaze/nt/bin/../lib/gcc/microblaze-xilinx-elf/7.2.0/../../../../microblaze-xilinx-elf/lib/m/le/crt0.o
 .rela.text.XIntc_Disable
                0x0001b998        0x0 d:/xilinx/sdk/2018.2/gnu/microblaze/nt/bin/../lib/gcc/microblaze-xilinx-elf/7.2.0/../../../../microblaze-xilinx-elf/lib/m/le/crt0.o
 .rela.text.XIntc_Acknowledge
                0x0001b998        0x0 d:/xilinx/sdk/2018.2/gnu/microblaze/nt/bin/../lib/gcc/microblaze-xilinx-elf/7.2.0/../../../../microblaze-xilinx-elf/lib/m/le/crt0.o
 .rela.text.XIntc_LookupConfig
                0x0001b998        0x0 d:/xilinx/sdk/2018.2/gnu/microblaze/nt/bin/../lib/gcc/microblaze-xilinx-elf/7.2.0/../../../../microblaze-xilinx-elf/lib/m/le/crt0.o
 .rela.text.XIntc_ConnectFastHandler
                0x0001b998        0x0 d:/xilinx/sdk/2018.2/gnu/microblaze/nt/bin/../lib/gcc/microblaze-xilinx-elf/7.2.0/../../../../microblaze-xilinx-elf/lib/m/le/crt0.o
 .rela.text.XIntc_SetNormalIntrMode
                0x0001b998        0x0 d:/xilinx/sdk/2018.2/gnu/microblaze/nt/bin/../lib/gcc/microblaze-xilinx-elf/7.2.0/../../../../microblaze-xilinx-elf/lib/m/le/crt0.o
 .rela.data.XIntc_ConfigTable
                0x0001b998        0x0 d:/xilinx/sdk/2018.2/gnu/microblaze/nt/bin/../lib/gcc/microblaze-xilinx-elf/7.2.0/../../../../microblaze-xilinx-elf/lib/m/le/crt0.o
 .rela.text.XIntc_VoidInterruptHandler
                0x0001b998        0x0 d:/xilinx/sdk/2018.2/gnu/microblaze/nt/bin/../lib/gcc/microblaze-xilinx-elf/7.2.0/../../../../microblaze-xilinx-elf/lib/m/le/crt0.o
 .rela.text.XIntc_InterruptHandler
                0x0001b998        0x0 d:/xilinx/sdk/2018.2/gnu/microblaze/nt/bin/../lib/gcc/microblaze-xilinx-elf/7.2.0/../../../../microblaze-xilinx-elf/lib/m/le/crt0.o
 .rela.text.XIntc_RegisterFastHandler
                0x0001b998        0x0 d:/xilinx/sdk/2018.2/gnu/microblaze/nt/bin/../lib/gcc/microblaze-xilinx-elf/7.2.0/../../../../microblaze-xilinx-elf/lib/m/le/crt0.o
 .rela.text.StubStatusHandler
                0x0001b998        0x0 d:/xilinx/sdk/2018.2/gnu/microblaze/nt/bin/../lib/gcc/microblaze-xilinx-elf/7.2.0/../../../../microblaze-xilinx-elf/lib/m/le/crt0.o
 .rela.text.XSpi_Start
                0x0001b998        0x0 d:/xilinx/sdk/2018.2/gnu/microblaze/nt/bin/../lib/gcc/microblaze-xilinx-elf/7.2.0/../../../../microblaze-xilinx-elf/lib/m/le/crt0.o
 .rela.text.XSpi_Stop
                0x0001b998        0x0 d:/xilinx/sdk/2018.2/gnu/microblaze/nt/bin/../lib/gcc/microblaze-xilinx-elf/7.2.0/../../../../microblaze-xilinx-elf/lib/m/le/crt0.o
 .rela.text.XSpi_Reset
                0x0001b998        0x0 d:/xilinx/sdk/2018.2/gnu/microblaze/nt/bin/../lib/gcc/microblaze-xilinx-elf/7.2.0/../../../../microblaze-xilinx-elf/lib/m/le/crt0.o
 .rela.text.XSpi_CfgInitialize
                0x0001b998        0x0 d:/xilinx/sdk/2018.2/gnu/microblaze/nt/bin/../lib/gcc/microblaze-xilinx-elf/7.2.0/../../../../microblaze-xilinx-elf/lib/m/le/crt0.o
 .rela.text.XSpi_Transfer
                0x0001b998        0x0 d:/xilinx/sdk/2018.2/gnu/microblaze/nt/bin/../lib/gcc/microblaze-xilinx-elf/7.2.0/../../../../microblaze-xilinx-elf/lib/m/le/crt0.o
 .rela.text.XSpi_SetSlaveSelect
                0x0001b998        0x0 d:/xilinx/sdk/2018.2/gnu/microblaze/nt/bin/../lib/gcc/microblaze-xilinx-elf/7.2.0/../../../../microblaze-xilinx-elf/lib/m/le/crt0.o
 .rela.text.XSpi_GetSlaveSelect
                0x0001b998        0x0 d:/xilinx/sdk/2018.2/gnu/microblaze/nt/bin/../lib/gcc/microblaze-xilinx-elf/7.2.0/../../../../microblaze-xilinx-elf/lib/m/le/crt0.o
 .rela.text.XSpi_SetStatusHandler
                0x0001b998        0x0 d:/xilinx/sdk/2018.2/gnu/microblaze/nt/bin/../lib/gcc/microblaze-xilinx-elf/7.2.0/../../../../microblaze-xilinx-elf/lib/m/le/crt0.o
 .rela.text.XSpi_InterruptHandler
                0x0001b998        0x0 d:/xilinx/sdk/2018.2/gnu/microblaze/nt/bin/../lib/gcc/microblaze-xilinx-elf/7.2.0/../../../../microblaze-xilinx-elf/lib/m/le/crt0.o
 .rela.text.XSpi_LookupConfig
                0x0001b998        0x0 d:/xilinx/sdk/2018.2/gnu/microblaze/nt/bin/../lib/gcc/microblaze-xilinx-elf/7.2.0/../../../../microblaze-xilinx-elf/lib/m/le/crt0.o
 .rela.text.XSpi_Initialize
                0x0001b998        0x0 d:/xilinx/sdk/2018.2/gnu/microblaze/nt/bin/../lib/gcc/microblaze-xilinx-elf/7.2.0/../../../../microblaze-xilinx-elf/lib/m/le/crt0.o
 .rela.data     0x0001b998        0x0 d:/xilinx/sdk/2018.2/gnu/microblaze/nt/bin/../lib/gcc/microblaze-xilinx-elf/7.2.0/../../../../microblaze-xilinx-elf/lib/m/le/crt0.o
 .rela.text.__interrupt_handler
                0x0001b998        0x0 d:/xilinx/sdk/2018.2/gnu/microblaze/nt/bin/../lib/gcc/microblaze-xilinx-elf/7.2.0/../../../../microblaze-xilinx-elf/lib/m/le/crt0.o
 .rela.text.microblaze_register_handler
                0x0001b998        0x0 d:/xilinx/sdk/2018.2/gnu/microblaze/nt/bin/../lib/gcc/microblaze-xilinx-elf/7.2.0/../../../../microblaze-xilinx-elf/lib/m/le/crt0.o
 .rela.text.outbyte
                0x0001b998        0x0 d:/xilinx/sdk/2018.2/gnu/microblaze/nt/bin/../lib/gcc/microblaze-xilinx-elf/7.2.0/../../../../microblaze-xilinx-elf/lib/m/le/crt0.o
 .rela.text.Xil_ExceptionEnable
                0x0001b998        0x0 d:/xilinx/sdk/2018.2/gnu/microblaze/nt/bin/../lib/gcc/microblaze-xilinx-elf/7.2.0/../../../../microblaze-xilinx-elf/lib/m/le/crt0.o
 .rela.text.Xil_ExceptionDisable
                0x0001b998        0x0 d:/xilinx/sdk/2018.2/gnu/microblaze/nt/bin/../lib/gcc/microblaze-xilinx-elf/7.2.0/../../../../microblaze-xilinx-elf/lib/m/le/crt0.o
 .rela.text.getnum
                0x0001b998        0x0 d:/xilinx/sdk/2018.2/gnu/microblaze/nt/bin/../lib/gcc/microblaze-xilinx-elf/7.2.0/../../../../microblaze-xilinx-elf/lib/m/le/crt0.o
 .rela.text.outnum
                0x0001b998        0x0 d:/xilinx/sdk/2018.2/gnu/microblaze/nt/bin/../lib/gcc/microblaze-xilinx-elf/7.2.0/../../../../microblaze-xilinx-elf/lib/m/le/crt0.o
 .rela.text.xil_printf
                0x0001b998        0x0 d:/xilinx/sdk/2018.2/gnu/microblaze/nt/bin/../lib/gcc/microblaze-xilinx-elf/7.2.0/../../../../microblaze-xilinx-elf/lib/m/le/crt0.o
 .rela.text.XUartLite_CfgInitialize
                0x0001b998        0x0 d:/xilinx/sdk/2018.2/gnu/microblaze/nt/bin/../lib/gcc/microblaze-xilinx-elf/7.2.0/../../../../microblaze-xilinx-elf/lib/m/le/crt0.o
 .rela.text.XUartLite_ResetFifos
                0x0001b998        0x0 d:/xilinx/sdk/2018.2/gnu/microblaze/nt/bin/../lib/gcc/microblaze-xilinx-elf/7.2.0/../../../../microblaze-xilinx-elf/lib/m/le/crt0.o
 .rela.text.XUartLite_IsSending
                0x0001b998        0x0 d:/xilinx/sdk/2018.2/gnu/microblaze/nt/bin/../lib/gcc/microblaze-xilinx-elf/7.2.0/../../../../microblaze-xilinx-elf/lib/m/le/crt0.o
 .rela.text.XUartLite_Send
                0x0001b998        0x0 d:/xilinx/sdk/2018.2/gnu/microblaze/nt/bin/../lib/gcc/microblaze-xilinx-elf/7.2.0/../../../../microblaze-xilinx-elf/lib/m/le/crt0.o
 .rela.text.XUartLite_Recv
                0x0001b998        0x0 d:/xilinx/sdk/2018.2/gnu/microblaze/nt/bin/../lib/gcc/microblaze-xilinx-elf/7.2.0/../../../../microblaze-xilinx-elf/lib/m/le/crt0.o
 .rela.text.XUartLite_SelfTest
                0x0001b998        0x0 d:/xilinx/sdk/2018.2/gnu/microblaze/nt/bin/../lib/gcc/microblaze-xilinx-elf/7.2.0/../../../../microblaze-xilinx-elf/lib/m/le/crt0.o
 .rela.text.XUartLite_LookupConfig
                0x0001b998        0x0 d:/xilinx/sdk/2018.2/gnu/microblaze/nt/bin/../lib/gcc/microblaze-xilinx-elf/7.2.0/../../../../microblaze-xilinx-elf/lib/m/le/crt0.o
 .rela.text.XUartLite_Initialize
                0x0001b998        0x0 d:/xilinx/sdk/2018.2/gnu/microblaze/nt/bin/../lib/gcc/microblaze-xilinx-elf/7.2.0/../../../../microblaze-xilinx-elf/lib/m/le/crt0.o
 .rela.text.XUartLite_GetStats
                0x0001b998        0x0 d:/xilinx/sdk/2018.2/gnu/microblaze/nt/bin/../lib/gcc/microblaze-xilinx-elf/7.2.0/../../../../microblaze-xilinx-elf/lib/m/le/crt0.o
 .rela.text.XUartLite_ClearStats
                0x0001b998        0x0 d:/xilinx/sdk/2018.2/gnu/microblaze/nt/bin/../lib/gcc/microblaze-xilinx-elf/7.2.0/../../../../microblaze-xilinx-elf/lib/m/le/crt0.o

.sdata2         0x0001b998        0x0
                0x0001b998                . = ALIGN (0x8)
                0x0001b998                __sdata2_start = .
 *(.sdata2)
 *(.sdata2.*)
 *(.gnu.linkonce.s2.*)
                0x0001b998                . = ALIGN (0x8)
                0x0001b998                __sdata2_end = .

.sbss2          0x0001b998        0x0
                0x0001b998                __sbss2_start = .
 *(.sbss2)
 *(.sbss2.*)
 *(.gnu.linkonce.sb2.*)
                0x0001b998                __sbss2_end = .

.data           0x0001b998      0x640
                0x0001b998                . = ALIGN (0x4)
                0x0001b998                __data_start = .
 *(.data)
 .data          0x0001b998       0x44 C:\ZYBO\Work-2018.2\APP6-GE\S4e-APP6-Vivado_Etudiant\APP6\APP6.sdk\standalone_bsp_0\microblaze_0\lib\libxil.a(hw_exception_handler.o)
                0x0001b99c                MB_ExceptionVectorTable
 .data          0x0001b9dc        0x4 C:\ZYBO\Work-2018.2\APP6-GE\S4e-APP6-Vivado_Etudiant\APP6\APP6.sdk\standalone_bsp_0\microblaze_0\lib\libc.a(lib_a-ctype_.o)
                0x0001b9dc                __ctype_ptr__
 .data          0x0001b9e0       0xf4 C:\ZYBO\Work-2018.2\APP6-GE\S4e-APP6-Vivado_Etudiant\APP6\APP6.sdk\standalone_bsp_0\microblaze_0\lib\libc.a(lib_a-impure.o)
                0x0001bad0                _impure_ptr
 .data          0x0001bad4      0x410 C:\ZYBO\Work-2018.2\APP6-GE\S4e-APP6-Vivado_Etudiant\APP6\APP6.sdk\standalone_bsp_0\microblaze_0\lib\libc.a(lib_a-mallocr.o)
                0x0001bad4                __malloc_av_
                0x0001bedc                __malloc_trim_threshold
                0x0001bee0                __malloc_sbrk_base
 .data          0x0001bee4       0x7c C:\ZYBO\Work-2018.2\APP6-GE\S4e-APP6-Vivado_Etudiant\APP6\APP6.sdk\standalone_bsp_0\microblaze_0\lib\libc.a(lib_a-locale.o)
                0x0001bee4                __mb_cur_max
 *(.data.*)
 .data.XIntc_ConfigTable
                0x0001bf60       0x30 C:\ZYBO\Work-2018.2\APP6-GE\S4e-APP6-Vivado_Etudiant\APP6\APP6.sdk\standalone_bsp_0\microblaze_0\lib\libxil.a(xintc_g.o)
                0x0001bf60                XIntc_ConfigTable
 .data.MB_InterruptVectorTable
                0x0001bf90        0x8 C:\ZYBO\Work-2018.2\APP6-GE\S4e-APP6-Vivado_Etudiant\APP6\APP6.sdk\standalone_bsp_0\microblaze_0\lib\libxil.a(microblaze_interrupts_g.o)
                0x0001bf90                MB_InterruptVectorTable
 .data.Xil_AssertWait
                0x0001bf98        0x4 C:\ZYBO\Work-2018.2\APP6-GE\S4e-APP6-Vivado_Etudiant\APP6\APP6.sdk\standalone_bsp_0\microblaze_0\lib\libxil.a(xil_assert.o)
                0x0001bf98                Xil_AssertWait
 .data.XGpio_ConfigTable
                0x0001bf9c       0x10 C:\ZYBO\Work-2018.2\APP6-GE\S4e-APP6-Vivado_Etudiant\APP6\APP6.sdk\standalone_bsp_0\microblaze_0\lib\libxil.a(xgpio_g.o)
                0x0001bf9c                XGpio_ConfigTable
 .data.XSpi_ConfigTable
                0x0001bfac       0x1c C:\ZYBO\Work-2018.2\APP6-GE\S4e-APP6-Vivado_Etudiant\APP6\APP6.sdk\standalone_bsp_0\microblaze_0\lib\libxil.a(xspi_g.o)
                0x0001bfac                XSpi_ConfigTable
 .data.XUartLite_ConfigTable
                0x0001bfc8       0x10 C:\ZYBO\Work-2018.2\APP6-GE\S4e-APP6-Vivado_Etudiant\APP6\APP6.sdk\standalone_bsp_0\microblaze_0\lib\libxil.a(xuartlite_g.o)
                0x0001bfc8                XUartLite_ConfigTable
 *(.gnu.linkonce.d.*)
                0x0001bfd8                __data_end = .

.tm_clone_table
                0x0001bfd8        0x0
 .tm_clone_table
                0x0001bfd8        0x0 d:/xilinx/sdk/2018.2/gnu/microblaze/nt/bin/../lib/gcc/microblaze-xilinx-elf/7.2.0/m/le/crtbegin.o
 .tm_clone_table
                0x0001bfd8        0x0 d:/xilinx/sdk/2018.2/gnu/microblaze/nt/bin/../lib/gcc/microblaze-xilinx-elf/7.2.0/m/le/crtend.o

.got
 *(.got)

.got1
 *(.got1)

.got2
 *(.got2)

.eh_frame       0x0001bfd8        0x0
 *(.eh_frame)
 .eh_frame      0x0001bfd8        0x0 d:/xilinx/sdk/2018.2/gnu/microblaze/nt/bin/../lib/gcc/microblaze-xilinx-elf/7.2.0/m/le/crtbegin.o

.jcr
 *(.jcr)

.gcc_except_table
 *(.gcc_except_table)

.sdata          0x0001bfd8        0x0
                0x0001bfd8                . = ALIGN (0x8)
                0x0001bfd8                __sdata_start = .
 *(.sdata)
 *(.sdata.*)
 *(.gnu.linkonce.s.*)
                0x0001bfd8                __sdata_end = .

.sbss           0x0001bfd8        0x0
                0x0001bfd8                . = ALIGN (0x4)
                0x0001bfd8                __sbss_start = .
 *(.sbss)
 *(.sbss.*)
 *(.gnu.linkonce.sb.*)
                0x0001bfd8                . = ALIGN (0x8)
                0x0001bfd8                __sbss_end = .

.tdata          0x0001bfd8        0x0
                0x0001bfd8                __tdata_start = .
 *(.tdata)
 *(.tdata.*)
 *(.gnu.linkonce.td.*)
                0x0001bfd8                __tdata_end = .

.tbss           0x0001bfd8        0x0
                0x0001bfd8                __tbss_start = .
 *(.tbss)
 *(.tbss.*)
 *(.gnu.linkonce.tb.*)
                0x0001bfd8                __tbss_end = .

.bss            0x0001bfd8      0xedc
                0x0001bfd8                . = ALIGN (0x4)
                0x0001bfd8                __bss_start = .
 *(.bss)
 .bss           0x0001bfd8       0x20 d:/xilinx/sdk/2018.2/gnu/microblaze/nt/bin/../lib/gcc/microblaze-xilinx-elf/7.2.0/m/le/crtbegin.o
 .bss           0x0001bff8       0x34 C:\ZYBO\Work-2018.2\APP6-GE\S4e-APP6-Vivado_Etudiant\APP6\APP6.sdk\standalone_bsp_0\microblaze_0\lib\libc.a(lib_a-mallocr.o)
                0x0001bff8                __malloc_top_pad
                0x0001bffc                __malloc_max_sbrked_mem
                0x0001c000                __malloc_max_total_mem
                0x0001c004                __malloc_current_mallinfo
 .bss           0x0001c02c       0x10 C:\ZYBO\Work-2018.2\APP6-GE\S4e-APP6-Vivado_Etudiant\APP6\APP6.sdk\standalone_bsp_0\microblaze_0\lib\libc.a(lib_a-locale.o)
                0x0001c02c                __nlocale_changed
                0x0001c030                __mlocale_changed
                0x0001c034                _PathLocale
 .bss           0x0001c03c        0x4 C:\ZYBO\Work-2018.2\APP6-GE\S4e-APP6-Vivado_Etudiant\APP6\APP6.sdk\standalone_bsp_0\microblaze_0\lib\libgloss.a(sbrk.o)
 *(.bss.*)
 .bss.context   0x0001c040      0x5e0 ./cyclone_tcp/std_services/echo.o
                0x0001c040                context
 .bss.arpTickCounter
                0x0001c620        0x4 ./cyclone_tcp/ipv4/arp.o
                0x0001c620                arpTickCounter
 .bss._ZL13callbackTable
                0x0001c624       0x48 ./cyclone_tcp/core/net.o
 .bss._ZL18callbackTableMutex
                0x0001c66c        0x4 ./cyclone_tcp/core/net.o
 .bss._ZL9prngState
                0x0001c670        0x4 ./cyclone_tcp/core/net.o
 .bss._ZL12netTimestamp
                0x0001c674        0x4 ./cyclone_tcp/core/net.o
 .bss._ZL14netTaskRunning
                0x0001c678        0x4 ./cyclone_tcp/core/net.o
 .bss.netInterface
                0x0001c67c      0x334 ./cyclone_tcp/core/net.o
                0x0001c67c                netInterface
 .bss.netEvent  0x0001c9b0        0x4 ./cyclone_tcp/core/net.o
                0x0001c9b0                netEvent
 .bss.netMutex  0x0001c9b4        0x4 ./cyclone_tcp/core/net.o
                0x0001c9b4                netMutex
 .bss.netTaskHandle
                0x0001c9b8        0x4 ./cyclone_tcp/core/net.o
                0x0001c9b8                netTaskHandle
 .bss.nicTickCounter
                0x0001c9bc        0x4 ./cyclone_tcp/core/nic.o
                0x0001c9bc                nicTickCounter
 .bss.socketTable
                0x0001c9c0      0x2d0 ./cyclone_tcp/core/socket.o
                0x0001c9c0                socketTable
 .bss.udpCallbackTable
                0x0001cc90       0xa0 ./cyclone_tcp/core/udp.o
                0x0001cc90                udpCallbackTable
 .bss.udpCallbackMutex
                0x0001cd30        0x4 ./cyclone_tcp/core/udp.o
                0x0001cd30                udpCallbackMutex
 .bss._ZL14udpDynamicPort
                0x0001cd34        0x2 ./cyclone_tcp/core/udp.o
 .bss.IRQenabled
                0x0001cd36        0x1 ./cyclone_tcp/ext_int_driver.o
                0x0001cd36                IRQenabled
 *fill*         0x0001cd37        0x1 
 .bss.InterruptController
                0x0001cd38       0x14 ./cyclone_tcp/ext_int_driver.o
                0x0001cd38                InterruptController
 .bss.udpSocketUp
                0x0001cd4c        0x1 ./cyclone_tcp/main.o
                0x0001cd4c                udpSocketUp
 *fill*         0x0001cd4d        0x3 
 .bss.RecvBuffer
                0x0001cd50       0x10 ./cyclone_tcp/main.o
                0x0001cd50                RecvBuffer
 .bss.UartLite  0x0001cd60       0x4c ./cyclone_tcp/main.o
                0x0001cd60                UartLite
 .bss.ipv4Addr  0x0001cdac        0x4 ./cyclone_tcp/main.o
                0x0001cdac                ipv4Addr
 .bss.ReceivedCount
                0x0001cdb0        0x4 ./cyclone_tcp/main.o
                0x0001cdb0                ReceivedCount
 .bss.outputLED
                0x0001cdb4       0x10 ./cyclone_tcp/main.o
                0x0001cdb4                outputLED
 .bss.counter   0x0001cdc4        0x4 ./cyclone_tcp/main.o
                0x0001cdc4                counter
 .bss.SpiDeviceInst
                0x0001cdc8       0x5c ./cyclone_tcp/spi_driver.o
                0x0001cdc8                SpiDeviceInst
 .bss.systemTicks
                0x0001ce24        0x4 ./common/os_port_none.o
                0x0001ce24                systemTicks
 .bss.Xil_AssertCallbackRoutine
                0x0001ce28        0x4 C:\ZYBO\Work-2018.2\APP6-GE\S4e-APP6-Vivado_Etudiant\APP6\APP6.sdk\standalone_bsp_0\microblaze_0\lib\libxil.a(xil_assert.o)
 *(.gnu.linkonce.b.*)
 *(COMMON)
 COMMON         0x0001ce2c       0x80 C:\ZYBO\Work-2018.2\APP6-GE\S4e-APP6-Vivado_Etudiant\APP6\APP6.sdk\standalone_bsp_0\microblaze_0\lib\libxil.a(xintc.o)
                0x0001ce2c                XIntc_BitPosMask
 COMMON         0x0001ceac        0x4 C:\ZYBO\Work-2018.2\APP6-GE\S4e-APP6-Vivado_Etudiant\APP6\APP6.sdk\standalone_bsp_0\microblaze_0\lib\libxil.a(xil_assert.o)
                0x0001ceac                Xil_AssertStatus
 COMMON         0x0001ceb0        0x4 C:\ZYBO\Work-2018.2\APP6-GE\S4e-APP6-Vivado_Etudiant\APP6\APP6.sdk\standalone_bsp_0\microblaze_0\lib\libc.a(lib_a-reent.o)
                0x0001ceb0                errno
                0x0001ceb4                . = ALIGN (0x4)
                0x0001ceb4                __bss_end = .
                0x0001bfd8                _SDA_BASE_ = (__sdata_start + ((__sbss_end - __sdata_start) / 0x2))
                0x0001b998                _SDA2_BASE_ = (__sdata2_start + ((__sbss2_end - __sdata2_start) / 0x2))

.heap           0x0001ceb4     0x2004
                0x0001ceb8                . = ALIGN (0x8)
 *fill*         0x0001ceb4        0x4 
                0x0001ceb8                _heap = .
                0x0001ceb8                _heap_start = .
                0x0001eeb8                . = (. + _HEAP_SIZE)
 *fill*         0x0001ceb8     0x2000 
                0x0001eeb8                _heap_end = .

.stack          0x0001eeb8      0x800
                0x0001eeb8                _stack_end = .
                0x0001f6b8                . = (. + _STACK_SIZE)
 *fill*         0x0001eeb8      0x800 
                0x0001f6b8                . = ALIGN (0x8)
                0x0001f6b8                _stack = .
                0x0001f6b8                __stack = _stack
                0x0001f6b8                _end = .
LOAD ./cyclone_tcp/std_services/echo.o
LOAD ./cyclone_tcp/ipv4/arp.o
LOAD ./cyclone_tcp/ipv4/ipv4.o
LOAD ./cyclone_tcp/drivers/eth/enc624j600_driver.o
LOAD ./cyclone_tcp/core/ethernet.o
LOAD ./cyclone_tcp/core/ip.o
LOAD ./cyclone_tcp/core/net.o
LOAD ./cyclone_tcp/core/net_mem.o
LOAD ./cyclone_tcp/core/nic.o
LOAD ./cyclone_tcp/core/socket.o
LOAD ./cyclone_tcp/core/udp.o
LOAD ./cyclone_tcp/ext_int_driver.o
LOAD ./cyclone_tcp/main.o
LOAD ./cyclone_tcp/spi_driver.o
LOAD ./common/cpu_endian.o
LOAD ./common/date_time.o
LOAD ./common/os_port_none.o
LOAD C:\ZYBO\Work-2018.2\APP6-GE\S4e-APP6-Vivado_Etudiant\APP6\APP6.sdk\standalone_bsp_0\microblaze_0\lib\libgcc.a
LOAD C:\ZYBO\Work-2018.2\APP6-GE\S4e-APP6-Vivado_Etudiant\APP6\APP6.sdk\standalone_bsp_0\microblaze_0\lib\libgloss.a
LOAD C:\ZYBO\Work-2018.2\APP6-GE\S4e-APP6-Vivado_Etudiant\APP6\APP6.sdk\standalone_bsp_0\microblaze_0\lib\libxil.a
LOAD d:/xilinx/sdk/2018.2/gnu/microblaze/nt/bin/../lib/gcc/microblaze-xilinx-elf/7.2.0/../../../../microblaze-xilinx-elf/lib/m/le\libstdc++.a
LOAD C:\ZYBO\Work-2018.2\APP6-GE\S4e-APP6-Vivado_Etudiant\APP6\APP6.sdk\standalone_bsp_0\microblaze_0\lib\libm.a
LOAD C:\ZYBO\Work-2018.2\APP6-GE\S4e-APP6-Vivado_Etudiant\APP6\APP6.sdk\standalone_bsp_0\microblaze_0\lib\libc.a
LOAD C:\ZYBO\Work-2018.2\APP6-GE\S4e-APP6-Vivado_Etudiant\APP6\APP6.sdk\standalone_bsp_0\microblaze_0\lib\libgcc.a
START GROUP
LOAD C:\ZYBO\Work-2018.2\APP6-GE\S4e-APP6-Vivado_Etudiant\APP6\APP6.sdk\standalone_bsp_0\microblaze_0\lib\libgloss.a
LOAD C:\ZYBO\Work-2018.2\APP6-GE\S4e-APP6-Vivado_Etudiant\APP6\APP6.sdk\standalone_bsp_0\microblaze_0\lib\libxil.a
LOAD C:\ZYBO\Work-2018.2\APP6-GE\S4e-APP6-Vivado_Etudiant\APP6\APP6.sdk\standalone_bsp_0\microblaze_0\lib\libc.a
LOAD C:\ZYBO\Work-2018.2\APP6-GE\S4e-APP6-Vivado_Etudiant\APP6\APP6.sdk\standalone_bsp_0\microblaze_0\lib\libm.a
END GROUP
LOAD C:\ZYBO\Work-2018.2\APP6-GE\S4e-APP6-Vivado_Etudiant\APP6\APP6.sdk\standalone_bsp_0\microblaze_0\lib\libgcc.a
LOAD d:/xilinx/sdk/2018.2/gnu/microblaze/nt/bin/../lib/gcc/microblaze-xilinx-elf/7.2.0/m/le/crtend.o
LOAD d:/xilinx/sdk/2018.2/gnu/microblaze/nt/bin/../lib/gcc/microblaze-xilinx-elf/7.2.0/m/le/crtn.o
OUTPUT(CycloneTCP_1_9_0.elf elf32-microblazeel)

.debug_frame    0x00000000     0x2470
 .debug_frame   0x00000000       0x50 ./cyclone_tcp/std_services/echo.o
 .debug_frame   0x00000050      0x298 ./cyclone_tcp/ipv4/arp.o
 .debug_frame   0x000002e8      0x454 ./cyclone_tcp/ipv4/ipv4.o
 .debug_frame   0x0000073c      0x308 ./cyclone_tcp/drivers/eth/enc624j600_driver.o
 .debug_frame   0x00000a44      0x2ac ./cyclone_tcp/core/ethernet.o
 .debug_frame   0x00000cf0      0x1ec ./cyclone_tcp/core/ip.o
 .debug_frame   0x00000edc      0x4d0 ./cyclone_tcp/core/net.o
 .debug_frame   0x000013ac      0x1c4 ./cyclone_tcp/core/net_mem.o
 .debug_frame   0x00001570       0xf8 ./cyclone_tcp/core/nic.o
 .debug_frame   0x00001668      0x32c ./cyclone_tcp/core/socket.o
 .debug_frame   0x00001994      0x22c ./cyclone_tcp/core/udp.o
 .debug_frame   0x00001bc0       0x80 ./cyclone_tcp/ext_int_driver.o
 .debug_frame   0x00001c40       0xf8 ./cyclone_tcp/main.o
 .debug_frame   0x00001d38       0x90 ./cyclone_tcp/spi_driver.o
 .debug_frame   0x00001dc8       0x90 ./common/cpu_endian.o
 .debug_frame   0x00001e58      0x1c8 ./common/os_port_none.o
 .debug_frame   0x00002020       0x44 C:\ZYBO\Work-2018.2\APP6-GE\S4e-APP6-Vivado_Etudiant\APP6\APP6.sdk\standalone_bsp_0\microblaze_0\lib\libgcc.a(_udivdi3.o)
 .debug_frame   0x00002064       0x44 C:\ZYBO\Work-2018.2\APP6-GE\S4e-APP6-Vivado_Etudiant\APP6\APP6.sdk\standalone_bsp_0\microblaze_0\lib\libgcc.a(_umoddi3.o)
 .debug_frame   0x000020a8       0xec C:\ZYBO\Work-2018.2\APP6-GE\S4e-APP6-Vivado_Etudiant\APP6\APP6.sdk\standalone_bsp_0\microblaze_0\lib\libgcc.a(_addsub_df.o)
 .debug_frame   0x00002194       0x44 C:\ZYBO\Work-2018.2\APP6-GE\S4e-APP6-Vivado_Etudiant\APP6\APP6.sdk\standalone_bsp_0\microblaze_0\lib\libgcc.a(_mul_df.o)
 .debug_frame   0x000021d8       0x38 C:\ZYBO\Work-2018.2\APP6-GE\S4e-APP6-Vivado_Etudiant\APP6\APP6.sdk\standalone_bsp_0\microblaze_0\lib\libgcc.a(_div_df.o)
 .debug_frame   0x00002210       0x30 C:\ZYBO\Work-2018.2\APP6-GE\S4e-APP6-Vivado_Etudiant\APP6\APP6.sdk\standalone_bsp_0\microblaze_0\lib\libgcc.a(_eq_df.o)
 .debug_frame   0x00002240       0x30 C:\ZYBO\Work-2018.2\APP6-GE\S4e-APP6-Vivado_Etudiant\APP6\APP6.sdk\standalone_bsp_0\microblaze_0\lib\libgcc.a(_ne_df.o)
 .debug_frame   0x00002270       0x30 C:\ZYBO\Work-2018.2\APP6-GE\S4e-APP6-Vivado_Etudiant\APP6\APP6.sdk\standalone_bsp_0\microblaze_0\lib\libgcc.a(_gt_df.o)
 .debug_frame   0x000022a0       0x30 C:\ZYBO\Work-2018.2\APP6-GE\S4e-APP6-Vivado_Etudiant\APP6\APP6.sdk\standalone_bsp_0\microblaze_0\lib\libgcc.a(_lt_df.o)
 .debug_frame   0x000022d0       0x30 C:\ZYBO\Work-2018.2\APP6-GE\S4e-APP6-Vivado_Etudiant\APP6\APP6.sdk\standalone_bsp_0\microblaze_0\lib\libgcc.a(_le_df.o)
 .debug_frame   0x00002300       0x30 C:\ZYBO\Work-2018.2\APP6-GE\S4e-APP6-Vivado_Etudiant\APP6\APP6.sdk\standalone_bsp_0\microblaze_0\lib\libgcc.a(_unord_df.o)
 .debug_frame   0x00002330       0x30 C:\ZYBO\Work-2018.2\APP6-GE\S4e-APP6-Vivado_Etudiant\APP6\APP6.sdk\standalone_bsp_0\microblaze_0\lib\libgcc.a(_si_to_df.o)
 .debug_frame   0x00002360       0x30 C:\ZYBO\Work-2018.2\APP6-GE\S4e-APP6-Vivado_Etudiant\APP6\APP6.sdk\standalone_bsp_0\microblaze_0\lib\libgcc.a(_df_to_si.o)
 .debug_frame   0x00002390       0x30 C:\ZYBO\Work-2018.2\APP6-GE\S4e-APP6-Vivado_Etudiant\APP6\APP6.sdk\standalone_bsp_0\microblaze_0\lib\libgcc.a(_usi_to_df.o)
 .debug_frame   0x000023c0       0x30 C:\ZYBO\Work-2018.2\APP6-GE\S4e-APP6-Vivado_Etudiant\APP6\APP6.sdk\standalone_bsp_0\microblaze_0\lib\libgcc.a(_muldi3.o)
 .debug_frame   0x000023f0       0x20 C:\ZYBO\Work-2018.2\APP6-GE\S4e-APP6-Vivado_Etudiant\APP6\APP6.sdk\standalone_bsp_0\microblaze_0\lib\libgcc.a(_clzsi2.o)
 .debug_frame   0x00002410       0x20 C:\ZYBO\Work-2018.2\APP6-GE\S4e-APP6-Vivado_Etudiant\APP6\APP6.sdk\standalone_bsp_0\microblaze_0\lib\libgcc.a(_pack_df.o)
 .debug_frame   0x00002430       0x20 C:\ZYBO\Work-2018.2\APP6-GE\S4e-APP6-Vivado_Etudiant\APP6\APP6.sdk\standalone_bsp_0\microblaze_0\lib\libgcc.a(_unpack_df.o)
 .debug_frame   0x00002450       0x20 C:\ZYBO\Work-2018.2\APP6-GE\S4e-APP6-Vivado_Etudiant\APP6\APP6.sdk\standalone_bsp_0\microblaze_0\lib\libgcc.a(_fpcmp_parts_df.o)

.debug_info     0x00000000    0x2c59e
 .debug_info    0x00000000     0x1e42 ./cyclone_tcp/std_services/echo.o
 .debug_info    0x00001e42     0x28a8 ./cyclone_tcp/ipv4/arp.o
 .debug_info    0x000046ea     0x317e ./cyclone_tcp/ipv4/ipv4.o
 .debug_info    0x00007868     0x2c6c ./cyclone_tcp/drivers/eth/enc624j600_driver.o
 .debug_info    0x0000a4d4     0x2e2c ./cyclone_tcp/core/ethernet.o
 .debug_info    0x0000d300     0x2232 ./cyclone_tcp/core/ip.o
 .debug_info    0x0000f532     0x3332 ./cyclone_tcp/core/net.o
 .debug_info    0x00012864     0x2016 ./cyclone_tcp/core/net_mem.o
 .debug_info    0x0001487a     0x219c ./cyclone_tcp/core/nic.o
 .debug_info    0x00016a16     0x2b4b ./cyclone_tcp/core/socket.o
 .debug_info    0x00019561     0x2aaf ./cyclone_tcp/core/udp.o
 .debug_info    0x0001c010     0x1d29 ./cyclone_tcp/ext_int_driver.o
 .debug_info    0x0001dd39     0x2955 ./cyclone_tcp/main.o
 .debug_info    0x0002068e     0x2034 ./cyclone_tcp/spi_driver.o
 .debug_info    0x000226c2      0x230 ./common/cpu_endian.o
 .debug_info    0x000228f2     0x1167 ./common/os_port_none.o
 .debug_info    0x00023a59     0x11b4 C:\ZYBO\Work-2018.2\APP6-GE\S4e-APP6-Vivado_Etudiant\APP6\APP6.sdk\standalone_bsp_0\microblaze_0\lib\libgcc.a(_udivdi3.o)
 .debug_info    0x00024c0d     0x1211 C:\ZYBO\Work-2018.2\APP6-GE\S4e-APP6-Vivado_Etudiant\APP6\APP6.sdk\standalone_bsp_0\microblaze_0\lib\libgcc.a(_umoddi3.o)
 .debug_info    0x00025e1e      0x66a C:\ZYBO\Work-2018.2\APP6-GE\S4e-APP6-Vivado_Etudiant\APP6\APP6.sdk\standalone_bsp_0\microblaze_0\lib\libgcc.a(_addsub_df.o)
 .debug_info    0x00026488      0x604 C:\ZYBO\Work-2018.2\APP6-GE\S4e-APP6-Vivado_Etudiant\APP6\APP6.sdk\standalone_bsp_0\microblaze_0\lib\libgcc.a(_mul_df.o)
 .debug_info    0x00026a8c      0x51c C:\ZYBO\Work-2018.2\APP6-GE\S4e-APP6-Vivado_Etudiant\APP6\APP6.sdk\standalone_bsp_0\microblaze_0\lib\libgcc.a(_div_df.o)
 .debug_info    0x00026fa8      0x43a C:\ZYBO\Work-2018.2\APP6-GE\S4e-APP6-Vivado_Etudiant\APP6\APP6.sdk\standalone_bsp_0\microblaze_0\lib\libgcc.a(_eq_df.o)
 .debug_info    0x000273e2      0x43a C:\ZYBO\Work-2018.2\APP6-GE\S4e-APP6-Vivado_Etudiant\APP6\APP6.sdk\standalone_bsp_0\microblaze_0\lib\libgcc.a(_ne_df.o)
 .debug_info    0x0002781c      0x43a C:\ZYBO\Work-2018.2\APP6-GE\S4e-APP6-Vivado_Etudiant\APP6\APP6.sdk\standalone_bsp_0\microblaze_0\lib\libgcc.a(_gt_df.o)
 .debug_info    0x00027c56      0x43a C:\ZYBO\Work-2018.2\APP6-GE\S4e-APP6-Vivado_Etudiant\APP6\APP6.sdk\standalone_bsp_0\microblaze_0\lib\libgcc.a(_lt_df.o)
 .debug_info    0x00028090      0x43a C:\ZYBO\Work-2018.2\APP6-GE\S4e-APP6-Vivado_Etudiant\APP6\APP6.sdk\standalone_bsp_0\microblaze_0\lib\libgcc.a(_le_df.o)
 .debug_info    0x000284ca      0x414 C:\ZYBO\Work-2018.2\APP6-GE\S4e-APP6-Vivado_Etudiant\APP6\APP6.sdk\standalone_bsp_0\microblaze_0\lib\libgcc.a(_unord_df.o)
 .debug_info    0x000288de      0x38f C:\ZYBO\Work-2018.2\APP6-GE\S4e-APP6-Vivado_Etudiant\APP6\APP6.sdk\standalone_bsp_0\microblaze_0\lib\libgcc.a(_si_to_df.o)
 .debug_info    0x00028c6d      0x413 C:\ZYBO\Work-2018.2\APP6-GE\S4e-APP6-Vivado_Etudiant\APP6\APP6.sdk\standalone_bsp_0\microblaze_0\lib\libgcc.a(_df_to_si.o)
 .debug_info    0x00029080      0x2a4 C:\ZYBO\Work-2018.2\APP6-GE\S4e-APP6-Vivado_Etudiant\APP6\APP6.sdk\standalone_bsp_0\microblaze_0\lib\libgcc.a(_thenan_df.o)
 .debug_info    0x00029324      0x39e C:\ZYBO\Work-2018.2\APP6-GE\S4e-APP6-Vivado_Etudiant\APP6\APP6.sdk\standalone_bsp_0\microblaze_0\lib\libgcc.a(_usi_to_df.o)
 .debug_info    0x000296c2       0x26 C:\ZYBO\Work-2018.2\APP6-GE\S4e-APP6-Vivado_Etudiant\APP6\APP6.sdk\standalone_bsp_0\microblaze_0\lib\libgcc.a(divsi3.o)
 .debug_info    0x000296e8       0x26 C:\ZYBO\Work-2018.2\APP6-GE\S4e-APP6-Vivado_Etudiant\APP6\APP6.sdk\standalone_bsp_0\microblaze_0\lib\libgcc.a(modsi3.o)
 .debug_info    0x0002970e       0x26 C:\ZYBO\Work-2018.2\APP6-GE\S4e-APP6-Vivado_Etudiant\APP6\APP6.sdk\standalone_bsp_0\microblaze_0\lib\libgcc.a(udivsi3.o)
 .debug_info    0x00029734       0x26 C:\ZYBO\Work-2018.2\APP6-GE\S4e-APP6-Vivado_Etudiant\APP6\APP6.sdk\standalone_bsp_0\microblaze_0\lib\libgcc.a(umodsi3.o)
 .debug_info    0x0002975a      0xc8b C:\ZYBO\Work-2018.2\APP6-GE\S4e-APP6-Vivado_Etudiant\APP6\APP6.sdk\standalone_bsp_0\microblaze_0\lib\libgcc.a(_muldi3.o)
 .debug_info    0x0002a3e5      0xb2f C:\ZYBO\Work-2018.2\APP6-GE\S4e-APP6-Vivado_Etudiant\APP6\APP6.sdk\standalone_bsp_0\microblaze_0\lib\libgcc.a(_clz.o)
 .debug_info    0x0002af14      0xb96 C:\ZYBO\Work-2018.2\APP6-GE\S4e-APP6-Vivado_Etudiant\APP6\APP6.sdk\standalone_bsp_0\microblaze_0\lib\libgcc.a(_clzsi2.o)
 .debug_info    0x0002baaa      0x418 C:\ZYBO\Work-2018.2\APP6-GE\S4e-APP6-Vivado_Etudiant\APP6\APP6.sdk\standalone_bsp_0\microblaze_0\lib\libgcc.a(_pack_df.o)
 .debug_info    0x0002bec2      0x3a9 C:\ZYBO\Work-2018.2\APP6-GE\S4e-APP6-Vivado_Etudiant\APP6\APP6.sdk\standalone_bsp_0\microblaze_0\lib\libgcc.a(_unpack_df.o)
 .debug_info    0x0002c26b      0x333 C:\ZYBO\Work-2018.2\APP6-GE\S4e-APP6-Vivado_Etudiant\APP6\APP6.sdk\standalone_bsp_0\microblaze_0\lib\libgcc.a(_fpcmp_parts_df.o)

.debug_abbrev   0x00000000     0x5e45
 .debug_abbrev  0x00000000      0x287 ./cyclone_tcp/std_services/echo.o
 .debug_abbrev  0x00000287      0x3a3 ./cyclone_tcp/ipv4/arp.o
 .debug_abbrev  0x0000062a      0x3e6 ./cyclone_tcp/ipv4/ipv4.o
 .debug_abbrev  0x00000a10      0x460 ./cyclone_tcp/drivers/eth/enc624j600_driver.o
 .debug_abbrev  0x00000e70      0x499 ./cyclone_tcp/core/ethernet.o
 .debug_abbrev  0x00001309      0x324 ./cyclone_tcp/core/ip.o
 .debug_abbrev  0x0000162d      0x44d ./cyclone_tcp/core/net.o
 .debug_abbrev  0x00001a7a      0x3cf ./cyclone_tcp/core/net_mem.o
 .debug_abbrev  0x00001e49      0x30e ./cyclone_tcp/core/nic.o
 .debug_abbrev  0x00002157      0x394 ./cyclone_tcp/core/socket.o
 .debug_abbrev  0x000024eb      0x351 ./cyclone_tcp/core/udp.o
 .debug_abbrev  0x0000283c      0x296 ./cyclone_tcp/ext_int_driver.o
 .debug_abbrev  0x00002ad2      0x359 ./cyclone_tcp/main.o
 .debug_abbrev  0x00002e2b      0x359 ./cyclone_tcp/spi_driver.o
 .debug_abbrev  0x00003184       0x9f ./common/cpu_endian.o
 .debug_abbrev  0x00003223      0x3a6 ./common/os_port_none.o
 .debug_abbrev  0x000035c9      0x26d C:\ZYBO\Work-2018.2\APP6-GE\S4e-APP6-Vivado_Etudiant\APP6\APP6.sdk\standalone_bsp_0\microblaze_0\lib\libgcc.a(_udivdi3.o)
 .debug_abbrev  0x00003836      0x281 C:\ZYBO\Work-2018.2\APP6-GE\S4e-APP6-Vivado_Etudiant\APP6\APP6.sdk\standalone_bsp_0\microblaze_0\lib\libgcc.a(_umoddi3.o)
 .debug_abbrev  0x00003ab7      0x242 C:\ZYBO\Work-2018.2\APP6-GE\S4e-APP6-Vivado_Etudiant\APP6\APP6.sdk\standalone_bsp_0\microblaze_0\lib\libgcc.a(_addsub_df.o)
 .debug_abbrev  0x00003cf9      0x26d C:\ZYBO\Work-2018.2\APP6-GE\S4e-APP6-Vivado_Etudiant\APP6\APP6.sdk\standalone_bsp_0\microblaze_0\lib\libgcc.a(_mul_df.o)
 .debug_abbrev  0x00003f66      0x258 C:\ZYBO\Work-2018.2\APP6-GE\S4e-APP6-Vivado_Etudiant\APP6\APP6.sdk\standalone_bsp_0\microblaze_0\lib\libgcc.a(_div_df.o)
 .debug_abbrev  0x000041be      0x1d2 C:\ZYBO\Work-2018.2\APP6-GE\S4e-APP6-Vivado_Etudiant\APP6\APP6.sdk\standalone_bsp_0\microblaze_0\lib\libgcc.a(_eq_df.o)
 .debug_abbrev  0x00004390      0x1d2 C:\ZYBO\Work-2018.2\APP6-GE\S4e-APP6-Vivado_Etudiant\APP6\APP6.sdk\standalone_bsp_0\microblaze_0\lib\libgcc.a(_ne_df.o)
 .debug_abbrev  0x00004562      0x1d2 C:\ZYBO\Work-2018.2\APP6-GE\S4e-APP6-Vivado_Etudiant\APP6\APP6.sdk\standalone_bsp_0\microblaze_0\lib\libgcc.a(_gt_df.o)
 .debug_abbrev  0x00004734      0x1d2 C:\ZYBO\Work-2018.2\APP6-GE\S4e-APP6-Vivado_Etudiant\APP6\APP6.sdk\standalone_bsp_0\microblaze_0\lib\libgcc.a(_lt_df.o)
 .debug_abbrev  0x00004906      0x1d2 C:\ZYBO\Work-2018.2\APP6-GE\S4e-APP6-Vivado_Etudiant\APP6\APP6.sdk\standalone_bsp_0\microblaze_0\lib\libgcc.a(_le_df.o)
 .debug_abbrev  0x00004ad8      0x1d2 C:\ZYBO\Work-2018.2\APP6-GE\S4e-APP6-Vivado_Etudiant\APP6\APP6.sdk\standalone_bsp_0\microblaze_0\lib\libgcc.a(_unord_df.o)
 .debug_abbrev  0x00004caa      0x1df C:\ZYBO\Work-2018.2\APP6-GE\S4e-APP6-Vivado_Etudiant\APP6\APP6.sdk\standalone_bsp_0\microblaze_0\lib\libgcc.a(_si_to_df.o)
 .debug_abbrev  0x00004e89      0x1d4 C:\ZYBO\Work-2018.2\APP6-GE\S4e-APP6-Vivado_Etudiant\APP6\APP6.sdk\standalone_bsp_0\microblaze_0\lib\libgcc.a(_df_to_si.o)
 .debug_abbrev  0x0000505d      0x119 C:\ZYBO\Work-2018.2\APP6-GE\S4e-APP6-Vivado_Etudiant\APP6\APP6.sdk\standalone_bsp_0\microblaze_0\lib\libgcc.a(_thenan_df.o)
 .debug_abbrev  0x00005176      0x202 C:\ZYBO\Work-2018.2\APP6-GE\S4e-APP6-Vivado_Etudiant\APP6\APP6.sdk\standalone_bsp_0\microblaze_0\lib\libgcc.a(_usi_to_df.o)
 .debug_abbrev  0x00005378       0x14 C:\ZYBO\Work-2018.2\APP6-GE\S4e-APP6-Vivado_Etudiant\APP6\APP6.sdk\standalone_bsp_0\microblaze_0\lib\libgcc.a(divsi3.o)
 .debug_abbrev  0x0000538c       0x14 C:\ZYBO\Work-2018.2\APP6-GE\S4e-APP6-Vivado_Etudiant\APP6\APP6.sdk\standalone_bsp_0\microblaze_0\lib\libgcc.a(modsi3.o)
 .debug_abbrev  0x000053a0       0x14 C:\ZYBO\Work-2018.2\APP6-GE\S4e-APP6-Vivado_Etudiant\APP6\APP6.sdk\standalone_bsp_0\microblaze_0\lib\libgcc.a(udivsi3.o)
 .debug_abbrev  0x000053b4       0x14 C:\ZYBO\Work-2018.2\APP6-GE\S4e-APP6-Vivado_Etudiant\APP6\APP6.sdk\standalone_bsp_0\microblaze_0\lib\libgcc.a(umodsi3.o)
 .debug_abbrev  0x000053c8      0x207 C:\ZYBO\Work-2018.2\APP6-GE\S4e-APP6-Vivado_Etudiant\APP6\APP6.sdk\standalone_bsp_0\microblaze_0\lib\libgcc.a(_muldi3.o)
 .debug_abbrev  0x000055cf      0x19b C:\ZYBO\Work-2018.2\APP6-GE\S4e-APP6-Vivado_Etudiant\APP6\APP6.sdk\standalone_bsp_0\microblaze_0\lib\libgcc.a(_clz.o)
 .debug_abbrev  0x0000576a      0x1ed C:\ZYBO\Work-2018.2\APP6-GE\S4e-APP6-Vivado_Etudiant\APP6\APP6.sdk\standalone_bsp_0\microblaze_0\lib\libgcc.a(_clzsi2.o)
 .debug_abbrev  0x00005957      0x1e0 C:\ZYBO\Work-2018.2\APP6-GE\S4e-APP6-Vivado_Etudiant\APP6\APP6.sdk\standalone_bsp_0\microblaze_0\lib\libgcc.a(_pack_df.o)
 .debug_abbrev  0x00005b37      0x1a6 C:\ZYBO\Work-2018.2\APP6-GE\S4e-APP6-Vivado_Etudiant\APP6\APP6.sdk\standalone_bsp_0\microblaze_0\lib\libgcc.a(_unpack_df.o)
 .debug_abbrev  0x00005cdd      0x168 C:\ZYBO\Work-2018.2\APP6-GE\S4e-APP6-Vivado_Etudiant\APP6\APP6.sdk\standalone_bsp_0\microblaze_0\lib\libgcc.a(_fpcmp_parts_df.o)

.debug_loc      0x00000000     0xab79
 .debug_loc     0x00000000       0x31 ./cyclone_tcp/std_services/echo.o
 .debug_loc     0x00000031      0xc72 ./cyclone_tcp/ipv4/arp.o
 .debug_loc     0x00000ca3     0x1110 ./cyclone_tcp/ipv4/ipv4.o
 .debug_loc     0x00001db3      0x9b3 ./cyclone_tcp/drivers/eth/enc624j600_driver.o
 .debug_loc     0x00002766      0xcae ./cyclone_tcp/core/ethernet.o
 .debug_loc     0x00003414      0x880 ./cyclone_tcp/core/ip.o
 .debug_loc     0x00003c94      0xbc2 ./cyclone_tcp/core/net.o
 .debug_loc     0x00004856      0x80f ./cyclone_tcp/core/net_mem.o
 .debug_loc     0x00005065      0x24b ./cyclone_tcp/core/nic.o
 .debug_loc     0x000052b0      0xcaa ./cyclone_tcp/core/socket.o
 .debug_loc     0x00005f5a      0xbed ./cyclone_tcp/core/udp.o
 .debug_loc     0x00006b47       0x40 ./cyclone_tcp/ext_int_driver.o
 .debug_loc     0x00006b87       0x98 ./cyclone_tcp/main.o
 .debug_loc     0x00006c1f      0x192 ./cyclone_tcp/spi_driver.o
 .debug_loc     0x00006db1      0x345 ./common/cpu_endian.o
 .debug_loc     0x000070f6       0x4d ./common/os_port_none.o
 .debug_loc     0x00007143     0x11e3 C:\ZYBO\Work-2018.2\APP6-GE\S4e-APP6-Vivado_Etudiant\APP6\APP6.sdk\standalone_bsp_0\microblaze_0\lib\libgcc.a(_udivdi3.o)
 .debug_loc     0x00008326      0xfff C:\ZYBO\Work-2018.2\APP6-GE\S4e-APP6-Vivado_Etudiant\APP6\APP6.sdk\standalone_bsp_0\microblaze_0\lib\libgcc.a(_umoddi3.o)
 .debug_loc     0x00009325      0x66e C:\ZYBO\Work-2018.2\APP6-GE\S4e-APP6-Vivado_Etudiant\APP6\APP6.sdk\standalone_bsp_0\microblaze_0\lib\libgcc.a(_addsub_df.o)
 .debug_loc     0x00009993      0x50a C:\ZYBO\Work-2018.2\APP6-GE\S4e-APP6-Vivado_Etudiant\APP6\APP6.sdk\standalone_bsp_0\microblaze_0\lib\libgcc.a(_mul_df.o)
 .debug_loc     0x00009e9d      0x226 C:\ZYBO\Work-2018.2\APP6-GE\S4e-APP6-Vivado_Etudiant\APP6\APP6.sdk\standalone_bsp_0\microblaze_0\lib\libgcc.a(_div_df.o)
 .debug_loc     0x0000a0c3       0x50 C:\ZYBO\Work-2018.2\APP6-GE\S4e-APP6-Vivado_Etudiant\APP6\APP6.sdk\standalone_bsp_0\microblaze_0\lib\libgcc.a(_eq_df.o)
 .debug_loc     0x0000a113       0x50 C:\ZYBO\Work-2018.2\APP6-GE\S4e-APP6-Vivado_Etudiant\APP6\APP6.sdk\standalone_bsp_0\microblaze_0\lib\libgcc.a(_ne_df.o)
 .debug_loc     0x0000a163       0x50 C:\ZYBO\Work-2018.2\APP6-GE\S4e-APP6-Vivado_Etudiant\APP6\APP6.sdk\standalone_bsp_0\microblaze_0\lib\libgcc.a(_gt_df.o)
 .debug_loc     0x0000a1b3       0x50 C:\ZYBO\Work-2018.2\APP6-GE\S4e-APP6-Vivado_Etudiant\APP6\APP6.sdk\standalone_bsp_0\microblaze_0\lib\libgcc.a(_lt_df.o)
 .debug_loc     0x0000a203       0x50 C:\ZYBO\Work-2018.2\APP6-GE\S4e-APP6-Vivado_Etudiant\APP6\APP6.sdk\standalone_bsp_0\microblaze_0\lib\libgcc.a(_le_df.o)
 .debug_loc     0x0000a253       0x50 C:\ZYBO\Work-2018.2\APP6-GE\S4e-APP6-Vivado_Etudiant\APP6\APP6.sdk\standalone_bsp_0\microblaze_0\lib\libgcc.a(_unord_df.o)
 .debug_loc     0x0000a2a3       0xd1 C:\ZYBO\Work-2018.2\APP6-GE\S4e-APP6-Vivado_Etudiant\APP6\APP6.sdk\standalone_bsp_0\microblaze_0\lib\libgcc.a(_si_to_df.o)
 .debug_loc     0x0000a374       0x49 C:\ZYBO\Work-2018.2\APP6-GE\S4e-APP6-Vivado_Etudiant\APP6\APP6.sdk\standalone_bsp_0\microblaze_0\lib\libgcc.a(_df_to_si.o)
 .debug_loc     0x0000a3bd       0x8c C:\ZYBO\Work-2018.2\APP6-GE\S4e-APP6-Vivado_Etudiant\APP6\APP6.sdk\standalone_bsp_0\microblaze_0\lib\libgcc.a(_usi_to_df.o)
 .debug_loc     0x0000a449      0x145 C:\ZYBO\Work-2018.2\APP6-GE\S4e-APP6-Vivado_Etudiant\APP6\APP6.sdk\standalone_bsp_0\microblaze_0\lib\libgcc.a(_muldi3.o)
 .debug_loc     0x0000a58e       0xda C:\ZYBO\Work-2018.2\APP6-GE\S4e-APP6-Vivado_Etudiant\APP6\APP6.sdk\standalone_bsp_0\microblaze_0\lib\libgcc.a(_clzsi2.o)
 .debug_loc     0x0000a668      0x307 C:\ZYBO\Work-2018.2\APP6-GE\S4e-APP6-Vivado_Etudiant\APP6\APP6.sdk\standalone_bsp_0\microblaze_0\lib\libgcc.a(_pack_df.o)
 .debug_loc     0x0000a96f      0x132 C:\ZYBO\Work-2018.2\APP6-GE\S4e-APP6-Vivado_Etudiant\APP6\APP6.sdk\standalone_bsp_0\microblaze_0\lib\libgcc.a(_unpack_df.o)
 .debug_loc     0x0000aaa1       0xd8 C:\ZYBO\Work-2018.2\APP6-GE\S4e-APP6-Vivado_Etudiant\APP6\APP6.sdk\standalone_bsp_0\microblaze_0\lib\libgcc.a(_fpcmp_parts_df.o)

.debug_aranges  0x00000000      0xb88
 .debug_aranges
                0x00000000       0x28 ./cyclone_tcp/std_services/echo.o
 .debug_aranges
                0x00000028       0x98 ./cyclone_tcp/ipv4/arp.o
 .debug_aranges
                0x000000c0       0xf8 ./cyclone_tcp/ipv4/ipv4.o
 .debug_aranges
                0x000001b8       0xb8 ./cyclone_tcp/drivers/eth/enc624j600_driver.o
 .debug_aranges
                0x00000270       0xb0 ./cyclone_tcp/core/ethernet.o
 .debug_aranges
                0x00000320       0x80 ./cyclone_tcp/core/ip.o
 .debug_aranges
                0x000003a0      0x110 ./cyclone_tcp/core/net.o
 .debug_aranges
                0x000004b0       0x88 ./cyclone_tcp/core/net_mem.o
 .debug_aranges
                0x00000538       0x48 ./cyclone_tcp/core/nic.o
 .debug_aranges
                0x00000580       0xc0 ./cyclone_tcp/core/socket.o
 .debug_aranges
                0x00000640       0x78 ./cyclone_tcp/core/udp.o
 .debug_aranges
                0x000006b8       0x38 ./cyclone_tcp/ext_int_driver.o
 .debug_aranges
                0x000006f0       0x50 ./cyclone_tcp/main.o
 .debug_aranges
                0x00000740       0x40 ./cyclone_tcp/spi_driver.o
 .debug_aranges
                0x00000780       0x58 ./common/cpu_endian.o
 .debug_aranges
                0x000007d8       0xa0 ./common/os_port_none.o
 .debug_aranges
                0x00000878       0x20 C:\ZYBO\Work-2018.2\APP6-GE\S4e-APP6-Vivado_Etudiant\APP6\APP6.sdk\standalone_bsp_0\microblaze_0\lib\libgcc.a(_udivdi3.o)
 .debug_aranges
                0x00000898       0x20 C:\ZYBO\Work-2018.2\APP6-GE\S4e-APP6-Vivado_Etudiant\APP6\APP6.sdk\standalone_bsp_0\microblaze_0\lib\libgcc.a(_umoddi3.o)
 .debug_aranges
                0x000008b8       0x20 C:\ZYBO\Work-2018.2\APP6-GE\S4e-APP6-Vivado_Etudiant\APP6\APP6.sdk\standalone_bsp_0\microblaze_0\lib\libgcc.a(_addsub_df.o)
 .debug_aranges
                0x000008d8       0x20 C:\ZYBO\Work-2018.2\APP6-GE\S4e-APP6-Vivado_Etudiant\APP6\APP6.sdk\standalone_bsp_0\microblaze_0\lib\libgcc.a(_mul_df.o)
 .debug_aranges
                0x000008f8       0x20 C:\ZYBO\Work-2018.2\APP6-GE\S4e-APP6-Vivado_Etudiant\APP6\APP6.sdk\standalone_bsp_0\microblaze_0\lib\libgcc.a(_div_df.o)
 .debug_aranges
                0x00000918       0x20 C:\ZYBO\Work-2018.2\APP6-GE\S4e-APP6-Vivado_Etudiant\APP6\APP6.sdk\standalone_bsp_0\microblaze_0\lib\libgcc.a(_eq_df.o)
 .debug_aranges
                0x00000938       0x20 C:\ZYBO\Work-2018.2\APP6-GE\S4e-APP6-Vivado_Etudiant\APP6\APP6.sdk\standalone_bsp_0\microblaze_0\lib\libgcc.a(_ne_df.o)
 .debug_aranges
                0x00000958       0x20 C:\ZYBO\Work-2018.2\APP6-GE\S4e-APP6-Vivado_Etudiant\APP6\APP6.sdk\standalone_bsp_0\microblaze_0\lib\libgcc.a(_gt_df.o)
 .debug_aranges
                0x00000978       0x20 C:\ZYBO\Work-2018.2\APP6-GE\S4e-APP6-Vivado_Etudiant\APP6\APP6.sdk\standalone_bsp_0\microblaze_0\lib\libgcc.a(_lt_df.o)
 .debug_aranges
                0x00000998       0x20 C:\ZYBO\Work-2018.2\APP6-GE\S4e-APP6-Vivado_Etudiant\APP6\APP6.sdk\standalone_bsp_0\microblaze_0\lib\libgcc.a(_le_df.o)
 .debug_aranges
                0x000009b8       0x20 C:\ZYBO\Work-2018.2\APP6-GE\S4e-APP6-Vivado_Etudiant\APP6\APP6.sdk\standalone_bsp_0\microblaze_0\lib\libgcc.a(_unord_df.o)
 .debug_aranges
                0x000009d8       0x20 C:\ZYBO\Work-2018.2\APP6-GE\S4e-APP6-Vivado_Etudiant\APP6\APP6.sdk\standalone_bsp_0\microblaze_0\lib\libgcc.a(_si_to_df.o)
 .debug_aranges
                0x000009f8       0x20 C:\ZYBO\Work-2018.2\APP6-GE\S4e-APP6-Vivado_Etudiant\APP6\APP6.sdk\standalone_bsp_0\microblaze_0\lib\libgcc.a(_df_to_si.o)
 .debug_aranges
                0x00000a18       0x18 C:\ZYBO\Work-2018.2\APP6-GE\S4e-APP6-Vivado_Etudiant\APP6\APP6.sdk\standalone_bsp_0\microblaze_0\lib\libgcc.a(_thenan_df.o)
 .debug_aranges
                0x00000a30       0x20 C:\ZYBO\Work-2018.2\APP6-GE\S4e-APP6-Vivado_Etudiant\APP6\APP6.sdk\standalone_bsp_0\microblaze_0\lib\libgcc.a(_usi_to_df.o)
 .debug_aranges
                0x00000a50       0x20 C:\ZYBO\Work-2018.2\APP6-GE\S4e-APP6-Vivado_Etudiant\APP6\APP6.sdk\standalone_bsp_0\microblaze_0\lib\libgcc.a(divsi3.o)
 .debug_aranges
                0x00000a70       0x20 C:\ZYBO\Work-2018.2\APP6-GE\S4e-APP6-Vivado_Etudiant\APP6\APP6.sdk\standalone_bsp_0\microblaze_0\lib\libgcc.a(modsi3.o)
 .debug_aranges
                0x00000a90       0x20 C:\ZYBO\Work-2018.2\APP6-GE\S4e-APP6-Vivado_Etudiant\APP6\APP6.sdk\standalone_bsp_0\microblaze_0\lib\libgcc.a(udivsi3.o)
 .debug_aranges
                0x00000ab0       0x20 C:\ZYBO\Work-2018.2\APP6-GE\S4e-APP6-Vivado_Etudiant\APP6\APP6.sdk\standalone_bsp_0\microblaze_0\lib\libgcc.a(umodsi3.o)
 .debug_aranges
                0x00000ad0       0x20 C:\ZYBO\Work-2018.2\APP6-GE\S4e-APP6-Vivado_Etudiant\APP6\APP6.sdk\standalone_bsp_0\microblaze_0\lib\libgcc.a(_muldi3.o)
 .debug_aranges
                0x00000af0       0x18 C:\ZYBO\Work-2018.2\APP6-GE\S4e-APP6-Vivado_Etudiant\APP6\APP6.sdk\standalone_bsp_0\microblaze_0\lib\libgcc.a(_clz.o)
 .debug_aranges
                0x00000b08       0x20 C:\ZYBO\Work-2018.2\APP6-GE\S4e-APP6-Vivado_Etudiant\APP6\APP6.sdk\standalone_bsp_0\microblaze_0\lib\libgcc.a(_clzsi2.o)
 .debug_aranges
                0x00000b28       0x20 C:\ZYBO\Work-2018.2\APP6-GE\S4e-APP6-Vivado_Etudiant\APP6\APP6.sdk\standalone_bsp_0\microblaze_0\lib\libgcc.a(_pack_df.o)
 .debug_aranges
                0x00000b48       0x20 C:\ZYBO\Work-2018.2\APP6-GE\S4e-APP6-Vivado_Etudiant\APP6\APP6.sdk\standalone_bsp_0\microblaze_0\lib\libgcc.a(_unpack_df.o)
 .debug_aranges
                0x00000b68       0x20 C:\ZYBO\Work-2018.2\APP6-GE\S4e-APP6-Vivado_Etudiant\APP6\APP6.sdk\standalone_bsp_0\microblaze_0\lib\libgcc.a(_fpcmp_parts_df.o)

.debug_ranges   0x00000000      0xc90
 .debug_ranges  0x00000000       0x18 ./cyclone_tcp/std_services/echo.o
 .debug_ranges  0x00000018       0xa8 ./cyclone_tcp/ipv4/arp.o
 .debug_ranges  0x000000c0      0x160 ./cyclone_tcp/ipv4/ipv4.o
 .debug_ranges  0x00000220       0xc0 ./cyclone_tcp/drivers/eth/enc624j600_driver.o
 .debug_ranges  0x000002e0       0xa0 ./cyclone_tcp/core/ethernet.o
 .debug_ranges  0x00000380       0x70 ./cyclone_tcp/core/ip.o
 .debug_ranges  0x000003f0      0x100 ./cyclone_tcp/core/net.o
 .debug_ranges  0x000004f0       0x78 ./cyclone_tcp/core/net_mem.o
 .debug_ranges  0x00000568       0x38 ./cyclone_tcp/core/nic.o
 .debug_ranges  0x000005a0       0xb0 ./cyclone_tcp/core/socket.o
 .debug_ranges  0x00000650       0x68 ./cyclone_tcp/core/udp.o
 .debug_ranges  0x000006b8       0x28 ./cyclone_tcp/ext_int_driver.o
 .debug_ranges  0x000006e0       0x40 ./cyclone_tcp/main.o
 .debug_ranges  0x00000720       0x48 ./cyclone_tcp/spi_driver.o
 .debug_ranges  0x00000768       0x48 ./common/cpu_endian.o
 .debug_ranges  0x000007b0       0x90 ./common/os_port_none.o
 .debug_ranges  0x00000840      0x140 C:\ZYBO\Work-2018.2\APP6-GE\S4e-APP6-Vivado_Etudiant\APP6\APP6.sdk\standalone_bsp_0\microblaze_0\lib\libgcc.a(_udivdi3.o)
 .debug_ranges  0x00000980      0x148 C:\ZYBO\Work-2018.2\APP6-GE\S4e-APP6-Vivado_Etudiant\APP6\APP6.sdk\standalone_bsp_0\microblaze_0\lib\libgcc.a(_umoddi3.o)
 .debug_ranges  0x00000ac8       0x40 C:\ZYBO\Work-2018.2\APP6-GE\S4e-APP6-Vivado_Etudiant\APP6\APP6.sdk\standalone_bsp_0\microblaze_0\lib\libgcc.a(_addsub_df.o)
 .debug_ranges  0x00000b08       0x70 C:\ZYBO\Work-2018.2\APP6-GE\S4e-APP6-Vivado_Etudiant\APP6\APP6.sdk\standalone_bsp_0\microblaze_0\lib\libgcc.a(_mul_df.o)
 .debug_ranges  0x00000b78       0x30 C:\ZYBO\Work-2018.2\APP6-GE\S4e-APP6-Vivado_Etudiant\APP6\APP6.sdk\standalone_bsp_0\microblaze_0\lib\libgcc.a(_div_df.o)
 .debug_ranges  0x00000ba8       0x38 C:\ZYBO\Work-2018.2\APP6-GE\S4e-APP6-Vivado_Etudiant\APP6\APP6.sdk\standalone_bsp_0\microblaze_0\lib\libgcc.a(_si_to_df.o)
 .debug_ranges  0x00000be0       0x18 C:\ZYBO\Work-2018.2\APP6-GE\S4e-APP6-Vivado_Etudiant\APP6\APP6.sdk\standalone_bsp_0\microblaze_0\lib\libgcc.a(_usi_to_df.o)
 .debug_ranges  0x00000bf8       0x40 C:\ZYBO\Work-2018.2\APP6-GE\S4e-APP6-Vivado_Etudiant\APP6\APP6.sdk\standalone_bsp_0\microblaze_0\lib\libgcc.a(_muldi3.o)
 .debug_ranges  0x00000c38       0x28 C:\ZYBO\Work-2018.2\APP6-GE\S4e-APP6-Vivado_Etudiant\APP6\APP6.sdk\standalone_bsp_0\microblaze_0\lib\libgcc.a(_clzsi2.o)
 .debug_ranges  0x00000c60       0x30 C:\ZYBO\Work-2018.2\APP6-GE\S4e-APP6-Vivado_Etudiant\APP6\APP6.sdk\standalone_bsp_0\microblaze_0\lib\libgcc.a(_pack_df.o)

.debug_line     0x00000000     0xea6b
 .debug_line    0x00000000      0x57b ./cyclone_tcp/std_services/echo.o
 .debug_line    0x0000057b      0xf23 ./cyclone_tcp/ipv4/arp.o
 .debug_line    0x0000149e     0x115c ./cyclone_tcp/ipv4/ipv4.o
 .debug_line    0x000025fa      0xe7a ./cyclone_tcp/drivers/eth/enc624j600_driver.o
 .debug_line    0x00003474      0xd74 ./cyclone_tcp/core/ethernet.o
 .debug_line    0x000041e8      0x98e ./cyclone_tcp/core/ip.o
 .debug_line    0x00004b76     0x11c5 ./cyclone_tcp/core/net.o
 .debug_line    0x00005d3b      0xa8a ./cyclone_tcp/core/net_mem.o
 .debug_line    0x000067c5      0x628 ./cyclone_tcp/core/nic.o
 .debug_line    0x00006ded      0xc9e ./cyclone_tcp/core/socket.o
 .debug_line    0x00007a8b      0xcae ./cyclone_tcp/core/udp.o
 .debug_line    0x00008739      0x572 ./cyclone_tcp/ext_int_driver.o
 .debug_line    0x00008cab      0x883 ./cyclone_tcp/main.o
 .debug_line    0x0000952e      0x5b4 ./cyclone_tcp/spi_driver.o
 .debug_line    0x00009ae2      0x25c ./common/cpu_endian.o
 .debug_line    0x00009d3e      0x57e ./common/os_port_none.o
 .debug_line    0x0000a2bc      0x623 C:\ZYBO\Work-2018.2\APP6-GE\S4e-APP6-Vivado_Etudiant\APP6\APP6.sdk\standalone_bsp_0\microblaze_0\lib\libgcc.a(_udivdi3.o)
 .debug_line    0x0000a8df      0x668 C:\ZYBO\Work-2018.2\APP6-GE\S4e-APP6-Vivado_Etudiant\APP6\APP6.sdk\standalone_bsp_0\microblaze_0\lib\libgcc.a(_umoddi3.o)
 .debug_line    0x0000af47      0x488 C:\ZYBO\Work-2018.2\APP6-GE\S4e-APP6-Vivado_Etudiant\APP6\APP6.sdk\standalone_bsp_0\microblaze_0\lib\libgcc.a(_addsub_df.o)
 .debug_line    0x0000b3cf      0x47e C:\ZYBO\Work-2018.2\APP6-GE\S4e-APP6-Vivado_Etudiant\APP6\APP6.sdk\standalone_bsp_0\microblaze_0\lib\libgcc.a(_mul_df.o)
 .debug_line    0x0000b84d      0x380 C:\ZYBO\Work-2018.2\APP6-GE\S4e-APP6-Vivado_Etudiant\APP6\APP6.sdk\standalone_bsp_0\microblaze_0\lib\libgcc.a(_div_df.o)
 .debug_line    0x0000bbcd      0x205 C:\ZYBO\Work-2018.2\APP6-GE\S4e-APP6-Vivado_Etudiant\APP6\APP6.sdk\standalone_bsp_0\microblaze_0\lib\libgcc.a(_eq_df.o)
 .debug_line    0x0000bdd2      0x205 C:\ZYBO\Work-2018.2\APP6-GE\S4e-APP6-Vivado_Etudiant\APP6\APP6.sdk\standalone_bsp_0\microblaze_0\lib\libgcc.a(_ne_df.o)
 .debug_line    0x0000bfd7      0x215 C:\ZYBO\Work-2018.2\APP6-GE\S4e-APP6-Vivado_Etudiant\APP6\APP6.sdk\standalone_bsp_0\microblaze_0\lib\libgcc.a(_gt_df.o)
 .debug_line    0x0000c1ec      0x205 C:\ZYBO\Work-2018.2\APP6-GE\S4e-APP6-Vivado_Etudiant\APP6\APP6.sdk\standalone_bsp_0\microblaze_0\lib\libgcc.a(_lt_df.o)
 .debug_line    0x0000c3f1      0x205 C:\ZYBO\Work-2018.2\APP6-GE\S4e-APP6-Vivado_Etudiant\APP6\APP6.sdk\standalone_bsp_0\microblaze_0\lib\libgcc.a(_le_df.o)
 .debug_line    0x0000c5f6      0x211 C:\ZYBO\Work-2018.2\APP6-GE\S4e-APP6-Vivado_Etudiant\APP6\APP6.sdk\standalone_bsp_0\microblaze_0\lib\libgcc.a(_unord_df.o)
 .debug_line    0x0000c807      0x255 C:\ZYBO\Work-2018.2\APP6-GE\S4e-APP6-Vivado_Etudiant\APP6\APP6.sdk\standalone_bsp_0\microblaze_0\lib\libgcc.a(_si_to_df.o)
 .debug_line    0x0000ca5c      0x257 C:\ZYBO\Work-2018.2\APP6-GE\S4e-APP6-Vivado_Etudiant\APP6\APP6.sdk\standalone_bsp_0\microblaze_0\lib\libgcc.a(_df_to_si.o)
 .debug_line    0x0000ccb3      0x1a0 C:\ZYBO\Work-2018.2\APP6-GE\S4e-APP6-Vivado_Etudiant\APP6\APP6.sdk\standalone_bsp_0\microblaze_0\lib\libgcc.a(_thenan_df.o)
 .debug_line    0x0000ce53      0x213 C:\ZYBO\Work-2018.2\APP6-GE\S4e-APP6-Vivado_Etudiant\APP6\APP6.sdk\standalone_bsp_0\microblaze_0\lib\libgcc.a(_usi_to_df.o)
 .debug_line    0x0000d066       0xec C:\ZYBO\Work-2018.2\APP6-GE\S4e-APP6-Vivado_Etudiant\APP6\APP6.sdk\standalone_bsp_0\microblaze_0\lib\libgcc.a(divsi3.o)
 .debug_line    0x0000d152       0xec C:\ZYBO\Work-2018.2\APP6-GE\S4e-APP6-Vivado_Etudiant\APP6\APP6.sdk\standalone_bsp_0\microblaze_0\lib\libgcc.a(modsi3.o)
 .debug_line    0x0000d23e       0xf0 C:\ZYBO\Work-2018.2\APP6-GE\S4e-APP6-Vivado_Etudiant\APP6\APP6.sdk\standalone_bsp_0\microblaze_0\lib\libgcc.a(udivsi3.o)
 .debug_line    0x0000d32e       0xf4 C:\ZYBO\Work-2018.2\APP6-GE\S4e-APP6-Vivado_Etudiant\APP6\APP6.sdk\standalone_bsp_0\microblaze_0\lib\libgcc.a(umodsi3.o)
 .debug_line    0x0000d422      0x4d2 C:\ZYBO\Work-2018.2\APP6-GE\S4e-APP6-Vivado_Etudiant\APP6\APP6.sdk\standalone_bsp_0\microblaze_0\lib\libgcc.a(_muldi3.o)
 .debug_line    0x0000d8f4      0x445 C:\ZYBO\Work-2018.2\APP6-GE\S4e-APP6-Vivado_Etudiant\APP6\APP6.sdk\standalone_bsp_0\microblaze_0\lib\libgcc.a(_clz.o)
 .debug_line    0x0000dd39      0x4bc C:\ZYBO\Work-2018.2\APP6-GE\S4e-APP6-Vivado_Etudiant\APP6\APP6.sdk\standalone_bsp_0\microblaze_0\lib\libgcc.a(_clzsi2.o)
 .debug_line    0x0000e1f5      0x310 C:\ZYBO\Work-2018.2\APP6-GE\S4e-APP6-Vivado_Etudiant\APP6\APP6.sdk\standalone_bsp_0\microblaze_0\lib\libgcc.a(_pack_df.o)
 .debug_line    0x0000e505      0x2bf C:\ZYBO\Work-2018.2\APP6-GE\S4e-APP6-Vivado_Etudiant\APP6\APP6.sdk\standalone_bsp_0\microblaze_0\lib\libgcc.a(_unpack_df.o)
 .debug_line    0x0000e7c4      0x2a7 C:\ZYBO\Work-2018.2\APP6-GE\S4e-APP6-Vivado_Etudiant\APP6\APP6.sdk\standalone_bsp_0\microblaze_0\lib\libgcc.a(_fpcmp_parts_df.o)

.debug_str      0x00000000     0x4f10
 .debug_str     0x00000000     0x21d3 ./cyclone_tcp/std_services/echo.o
                               0x23c7 (size before relaxing)
 .debug_str     0x000021d3      0x31c ./cyclone_tcp/ipv4/arp.o
                               0x2436 (size before relaxing)
 .debug_str     0x000024ef      0x58c ./cyclone_tcp/ipv4/ipv4.o
                               0x2919 (size before relaxing)
 .debug_str     0x00002a7b      0x30a ./cyclone_tcp/drivers/eth/enc624j600_driver.o
                               0x2452 (size before relaxing)
 .debug_str     0x00002d85      0x288 ./cyclone_tcp/core/ethernet.o
                               0x26d3 (size before relaxing)
 .debug_str     0x0000300d      0x13a ./cyclone_tcp/core/ip.o
                               0x23b7 (size before relaxing)
 .debug_str     0x00003147      0x333 ./cyclone_tcp/core/net.o
                               0x2844 (size before relaxing)
 .debug_str     0x0000347a       0xd0 ./cyclone_tcp/core/net_mem.o
                               0x21f5 (size before relaxing)
 .debug_str     0x0000354a       0x37 ./cyclone_tcp/core/nic.o
                               0x252f (size before relaxing)
 .debug_str     0x00003581      0x2c8 ./cyclone_tcp/core/socket.o
                               0x27fd (size before relaxing)
 .debug_str     0x00003849      0x26b ./cyclone_tcp/core/udp.o
                               0x285e (size before relaxing)
 .debug_str     0x00003ab4      0x1e9 ./cyclone_tcp/ext_int_driver.o
                               0x2360 (size before relaxing)
 .debug_str     0x00003c9d      0x3f7 ./cyclone_tcp/main.o
                               0x2a23 (size before relaxing)
 .debug_str     0x00004094      0x257 ./cyclone_tcp/spi_driver.o
                               0x2413 (size before relaxing)
 .debug_str     0x000042eb       0x6b ./common/cpu_endian.o
                                0x29d (size before relaxing)
 .debug_str     0x00004356      0x111 ./common/os_port_none.o
                                0x929 (size before relaxing)
 .debug_str     0x00004467      0x4d3 C:\ZYBO\Work-2018.2\APP6-GE\S4e-APP6-Vivado_Etudiant\APP6\APP6.sdk\standalone_bsp_0\microblaze_0\lib\libgcc.a(_udivdi3.o)
                                0x9bc (size before relaxing)
 .debug_str     0x0000493a        0xa C:\ZYBO\Work-2018.2\APP6-GE\S4e-APP6-Vivado_Etudiant\APP6\APP6.sdk\standalone_bsp_0\microblaze_0\lib\libgcc.a(_umoddi3.o)
                                0x9bc (size before relaxing)
 .debug_str     0x00004944      0x24d C:\ZYBO\Work-2018.2\APP6-GE\S4e-APP6-Vivado_Etudiant\APP6\APP6.sdk\standalone_bsp_0\microblaze_0\lib\libgcc.a(_addsub_df.o)
                                0x570 (size before relaxing)
 .debug_str     0x00004b91       0x40 C:\ZYBO\Work-2018.2\APP6-GE\S4e-APP6-Vivado_Etudiant\APP6\APP6.sdk\standalone_bsp_0\microblaze_0\lib\libgcc.a(_mul_df.o)
                                0x542 (size before relaxing)
 .debug_str     0x00004bd1       0x35 C:\ZYBO\Work-2018.2\APP6-GE\S4e-APP6-Vivado_Etudiant\APP6\APP6.sdk\standalone_bsp_0\microblaze_0\lib\libgcc.a(_div_df.o)
                                0x532 (size before relaxing)
 .debug_str     0x00004c06       0x20 C:\ZYBO\Work-2018.2\APP6-GE\S4e-APP6-Vivado_Etudiant\APP6\APP6.sdk\standalone_bsp_0\microblaze_0\lib\libgcc.a(_eq_df.o)
                                0x4ff (size before relaxing)
 .debug_str     0x00004c26        0x8 C:\ZYBO\Work-2018.2\APP6-GE\S4e-APP6-Vivado_Etudiant\APP6\APP6.sdk\standalone_bsp_0\microblaze_0\lib\libgcc.a(_ne_df.o)
                                0x4ff (size before relaxing)
 .debug_str     0x00004c2e        0x8 C:\ZYBO\Work-2018.2\APP6-GE\S4e-APP6-Vivado_Etudiant\APP6\APP6.sdk\standalone_bsp_0\microblaze_0\lib\libgcc.a(_gt_df.o)
                                0x4ff (size before relaxing)
 .debug_str     0x00004c36        0x8 C:\ZYBO\Work-2018.2\APP6-GE\S4e-APP6-Vivado_Etudiant\APP6\APP6.sdk\standalone_bsp_0\microblaze_0\lib\libgcc.a(_lt_df.o)
                                0x4ff (size before relaxing)
 .debug_str     0x00004c3e        0x8 C:\ZYBO\Work-2018.2\APP6-GE\S4e-APP6-Vivado_Etudiant\APP6\APP6.sdk\standalone_bsp_0\microblaze_0\lib\libgcc.a(_le_df.o)
                                0x4ff (size before relaxing)
 .debug_str     0x00004c46        0xb C:\ZYBO\Work-2018.2\APP6-GE\S4e-APP6-Vivado_Etudiant\APP6\APP6.sdk\standalone_bsp_0\microblaze_0\lib\libgcc.a(_unord_df.o)
                                0x4f2 (size before relaxing)
 .debug_str     0x00004c51       0x27 C:\ZYBO\Work-2018.2\APP6-GE\S4e-APP6-Vivado_Etudiant\APP6\APP6.sdk\standalone_bsp_0\microblaze_0\lib\libgcc.a(_si_to_df.o)
                                0x4d5 (size before relaxing)
 .debug_str     0x00004c78        0xa C:\ZYBO\Work-2018.2\APP6-GE\S4e-APP6-Vivado_Etudiant\APP6\APP6.sdk\standalone_bsp_0\microblaze_0\lib\libgcc.a(_df_to_si.o)
                                0x4f7 (size before relaxing)
 .debug_str     0x00004c82      0x488 C:\ZYBO\Work-2018.2\APP6-GE\S4e-APP6-Vivado_Etudiant\APP6\APP6.sdk\standalone_bsp_0\microblaze_0\lib\libgcc.a(_thenan_df.o)
 .debug_str     0x00004c82       0x14 C:\ZYBO\Work-2018.2\APP6-GE\S4e-APP6-Vivado_Etudiant\APP6\APP6.sdk\standalone_bsp_0\microblaze_0\lib\libgcc.a(_usi_to_df.o)
                                0x4d1 (size before relaxing)
 .debug_str     0x00004c96       0xa3 C:\ZYBO\Work-2018.2\APP6-GE\S4e-APP6-Vivado_Etudiant\APP6\APP6.sdk\standalone_bsp_0\microblaze_0\lib\libgcc.a(divsi3.o)
                                0x147 (size before relaxing)
 .debug_str     0x00004d39       0x97 C:\ZYBO\Work-2018.2\APP6-GE\S4e-APP6-Vivado_Etudiant\APP6\APP6.sdk\standalone_bsp_0\microblaze_0\lib\libgcc.a(modsi3.o)
                                0x147 (size before relaxing)
 .debug_str     0x00004dd0       0x98 C:\ZYBO\Work-2018.2\APP6-GE\S4e-APP6-Vivado_Etudiant\APP6\APP6.sdk\standalone_bsp_0\microblaze_0\lib\libgcc.a(udivsi3.o)
                                0x148 (size before relaxing)
 .debug_str     0x00004e68       0x98 C:\ZYBO\Work-2018.2\APP6-GE\S4e-APP6-Vivado_Etudiant\APP6\APP6.sdk\standalone_bsp_0\microblaze_0\lib\libgcc.a(umodsi3.o)
                                0x148 (size before relaxing)
 .debug_str     0x00004f00        0x9 C:\ZYBO\Work-2018.2\APP6-GE\S4e-APP6-Vivado_Etudiant\APP6\APP6.sdk\standalone_bsp_0\microblaze_0\lib\libgcc.a(_muldi3.o)
                                0x960 (size before relaxing)
 .debug_str     0x00004f09      0x903 C:\ZYBO\Work-2018.2\APP6-GE\S4e-APP6-Vivado_Etudiant\APP6\APP6.sdk\standalone_bsp_0\microblaze_0\lib\libgcc.a(_clz.o)
 .debug_str     0x00004f09      0x920 C:\ZYBO\Work-2018.2\APP6-GE\S4e-APP6-Vivado_Etudiant\APP6\APP6.sdk\standalone_bsp_0\microblaze_0\lib\libgcc.a(_clzsi2.o)
 .debug_str     0x00004f09        0x7 C:\ZYBO\Work-2018.2\APP6-GE\S4e-APP6-Vivado_Etudiant\APP6\APP6.sdk\standalone_bsp_0\microblaze_0\lib\libgcc.a(_pack_df.o)
                                0x4eb (size before relaxing)
 .debug_str     0x00004f10      0x4cd C:\ZYBO\Work-2018.2\APP6-GE\S4e-APP6-Vivado_Etudiant\APP6\APP6.sdk\standalone_bsp_0\microblaze_0\lib\libgcc.a(_unpack_df.o)
 .debug_str     0x00004f10      0x4ab C:\ZYBO\Work-2018.2\APP6-GE\S4e-APP6-Vivado_Etudiant\APP6\APP6.sdk\standalone_bsp_0\microblaze_0\lib\libgcc.a(_fpcmp_parts_df.o)
